(dp0
S'1lvb'
p1
(lp2
(iPocket
Pocket
p3
(dp4
S'mean_loc_hyd_dens_norm'
p5
F0.71999999999999997
sS'as_density_norm'
p6
F0.60999999999999999
sS'polarity_score_norm'
p7
F0.55000000000000004
sS'GLN'
p8
I1
sS'as_max_dst_norm'
p9
F0.78000000000000003
sS'nb_AS'
p10
I45
sS'prop_polar_atm'
p11
F37.93
sS'ILE'
p12
I0
sS'mean_loc_hyd_dens'
p13
F19.050000000000001
sS'pock_vol'
p14
F187.78999999999999
sS'PP-dst'
p15
F6.6600000000000001
sS'pock_asa'
p16
F120.78
sS'CYS'
p17
I3
sS'lig'
p18
S'PEP'
p19
sS'SER'
p20
I1
sS'LYS'
p21
I0
sS'PRO'
p22
I0
sS'#pdb'
p23
S'1lvb_unbound.pdb'
p24
sS'overlap'
p25
F11.539999999999999
sS'GLU'
p26
I1
sS'apol_as_prop_norm'
p27
F0.46999999999999997
sS'volume_score'
p28
F4.7000000000000002
sS'polarity_score'
p29
I6
sS'mean_as_ray'
p30
F3.54
sS'ASN'
p31
I0
sS'drug_score'
p32
F0.20000000000000001
sS'flex'
p33
F0.62
sS'VAL'
p34
I0
sS'PP-crit'
p35
I0
sS'THR'
p36
I0
sS'nb_AS_norm'
p37
F0.80000000000000004
sS'ASP'
p38
I0
sS'as_max_dst'
p39
F7.9500000000000002
sS'charge_score'
p40
I0
sS'TRP'
p41
I2
sS'mean_as_solv_acc'
p42
F0.5
sS'apol_as_prop'
p43
F0.46999999999999997
sS'pock_apol_asa'
p44
F72.459999999999994
sS'crit5'
p45
F0.02
sS'crit4'
p46
F0.14000000000000001
sS'GLY'
p47
I0
sS'crit6'
p48
I0
sS'HIS'
p49
I0
sS'PHE'
p50
I0
sS'ALA'
p51
I0
sS'MET'
p52
I1
sS'hydrophobicity_score'
p53
F35.5
sS'LEU'
p54
I0
sS'ARG'
p55
I1
sS'crit6_continue'
p56
F-0.93999999999999995
sS'lig_vol'
p57
F568.79999999999995
sS'as_density'
p58
F3.02
sS'pock_pol_asa'
p59
F48.329999999999998
sS'TYR'
p60
I0
sba(iPocket
Pocket
p61
(dp62
g5
F0.29999999999999999
sg6
F0.53000000000000003
sg7
F0.55000000000000004
sg8
I0
sg9
F0.67000000000000004
sg10
I37
sg11
F47.829999999999998
sg12
I0
sg13
F8.0
sg14
F338.91000000000003
sg15
F25.239999999999998
sg16
F140.37
sg17
I0
sg18
S'PEP'
p63
sg20
I2
sg21
I1
sg22
I1
sg23
S'1lvb_unbound.pdb'
p64
sg25
F0.0
sg26
I0
sg27
F0.23999999999999999
sg28
F4.5599999999999996
sg29
I6
sg30
F3.6299999999999999
sg31
I1
sg32
F0.029999999999999999
sg33
F0.19
sg34
I1
sg35
I0
sg36
I0
sg37
F0.65000000000000002
sg38
I0
sg39
F6.6399999999999997
sg40
I1
sg41
I2
sg42
F0.56000000000000005
sg43
F0.23999999999999999
sg44
F53.140000000000001
sg45
F0.0
sg46
F0.0
sg47
I0
sg48
I0
sg49
I0
sg50
I0
sg51
I0
sg52
I0
sg53
F28.890000000000001
sg54
I1
sg55
I0
sg56
F-1.25
sg57
F568.79999999999995
sg58
F2.6099999999999999
sg59
F87.230000000000004
sg60
I0
sba(iPocket
Pocket
p65
(dp66
g5
F0.040000000000000001
sg6
F0.75
sg7
F0.27000000000000002
sg8
I0
sg9
F0.81999999999999995
sg10
I42
sg11
F59.259999999999998
sg12
I0
sg13
F1.0
sg14
F568.33000000000004
sg15
F38.020000000000003
sg16
F198.44999999999999
sg17
I0
sg18
S'PEP'
p67
sg20
I1
sg21
I0
sg22
I3
sg23
S'1lvb_unbound.pdb'
p68
sg25
F0.0
sg26
I0
sg27
F0.050000000000000003
sg28
F3.29
sg29
I3
sg30
F3.8799999999999999
sg31
I0
sg32
F0.0
sg33
F0.52000000000000002
sg34
I0
sg35
I0
sg36
I0
sg37
F0.75
sg38
I2
sg39
F8.3800000000000008
sg40
I-2
sg41
I0
sg42
F0.56000000000000005
sg43
F0.050000000000000003
sg44
F80.909999999999997
sg45
F0.0
sg46
F0.0
sg47
I0
sg48
I0
sg49
I0
sg50
I1
sg51
I0
sg52
I0
sg53
F-21.859999999999999
sg54
I0
sg55
I0
sg56
F-1.25
sg57
F568.79999999999995
sg58
F3.6600000000000001
sg59
F117.54000000000001
sg60
I0
sba(iPocket
Pocket
p69
(dp70
g5
F0.38
sg6
F0.68999999999999995
sg7
F0.27000000000000002
sg8
I1
sg9
F0.83999999999999997
sg10
I40
sg11
F44.439999999999998
sg12
I1
sg13
F10.0
sg14
F544.58000000000004
sg15
F16.550000000000001
sg16
F208.55000000000001
sg17
I2
sg18
S'PEP'
p71
sg20
I0
sg21
I1
sg22
I1
sg23
S'1lvb_unbound.pdb'
p72
sg25
F0.0
sg26
I0
sg27
F0.28000000000000003
sg28
F4.5499999999999998
sg29
I3
sg30
F4.2800000000000002
sg31
I0
sg32
F0.070000000000000007
sg33
F0.57999999999999996
sg34
I0
sg35
I0
sg36
I1
sg37
F0.70999999999999996
sg38
I0
sg39
F8.6199999999999992
sg40
I1
sg41
I0
sg42
F0.62
sg43
F0.28000000000000003
sg44
F61.590000000000003
sg45
F0.0
sg46
F0.0
sg47
I0
sg48
I0
sg49
I0
sg50
I3
sg51
I0
sg52
I1
sg53
F45.909999999999997
sg54
I0
sg55
I0
sg56
F-1.25
sg57
F568.79999999999995
sg58
F3.3799999999999999
sg59
F146.96000000000001
sg60
I0
sba(iPocket
Pocket
p73
(dp74
g5
F1.0
sg6
F0.84999999999999998
sg7
F0.55000000000000004
sg8
I1
sg9
F0.81000000000000005
sg10
I56
sg11
F30.300000000000001
sg12
I1
sg13
F26.600000000000001
sg14
F483.05000000000001
sg15
F25.079999999999998
sg16
F216.33000000000001
sg17
I1
sg18
S'PEP'
p75
sg20
I0
sg21
I0
sg22
I1
sg23
S'1lvb_unbound.pdb'
p76
sg25
F0.0
sg26
I0
sg27
F0.54000000000000004
sg28
F3.6899999999999999
sg29
I6
sg30
F3.71
sg31
I2
sg32
F0.44
sg33
F0.26000000000000001
sg34
I1
sg35
I0
sg36
I0
sg37
F1.0
sg38
I0
sg39
F8.3000000000000007
sg40
I2
sg41
I1
sg42
F0.51000000000000001
sg43
F0.54000000000000004
sg44
F128.00999999999999
sg45
F0.0
sg46
F0.0
sg47
I2
sg48
I0
sg49
I2
sg50
I0
sg51
I0
sg52
I1
sg53
F23.0
sg54
I0
sg55
I0
sg56
F-1.25
sg57
F568.79999999999995
sg58
F4.1299999999999999
sg59
F88.319999999999993
sg60
I0
sba(iPocket
Pocket
p77
(dp78
g5
F0.16
sg6
F0.83999999999999997
sg7
F0.55000000000000004
sg8
I0
sg9
F0.97999999999999998
sg10
I38
sg11
F40.740000000000002
sg12
I0
sg13
F4.3300000000000001
sg14
F902.13
sg15
F28.879999999999999
sg16
F238.66
sg17
I3
sg18
S'PEP'
p79
sg20
I0
sg21
I1
sg22
I1
sg23
S'1lvb_unbound.pdb'
p80
sg25
F0.0
sg26
I0
sg27
F0.16
sg28
F4.0800000000000001
sg29
I6
sg30
F4.21
sg31
I0
sg32
F0.02
sg33
F0.44
sg34
I0
sg35
I0
sg36
I1
sg37
F0.67000000000000004
sg38
I2
sg39
F10.19
sg40
I0
sg41
I1
sg42
F0.64000000000000001
sg43
F0.16
sg44
F131.63
sg45
F0.0
sg46
F0.0
sg47
I0
sg48
I0
sg49
I1
sg50
I0
sg51
I0
sg52
I1
sg53
F21.420000000000002
sg54
I1
sg55
I0
sg56
F-1.25
sg57
F568.79999999999995
sg58
F4.0800000000000001
sg59
F107.03
sg60
I0
sba(iPocket
Pocket
p81
(dp82
g5
F0.70999999999999996
sg6
F0.90000000000000002
sg7
F0.45000000000000001
sg8
I0
sg9
F1.0
sg10
I52
sg11
F43.329999999999998
sg12
I1
sg13
F19.0
sg14
F846.72000000000003
sg15
F3.1800000000000002
sg16
F280.13
sg17
I0
sg18
S'PEP'
p83
sg20
I0
sg21
I1
sg22
I1
sg23
S'1lvb_unbound.pdb'
p84
sg25
F30.77
sg26
I0
sg27
F0.38
sg28
F4.9000000000000004
sg29
I5
sg30
F4.3899999999999997
sg31
I0
sg32
F0.26000000000000001
sg33
F0.62
sg34
I0
sg35
I1
sg36
I1
sg37
F0.93000000000000005
sg38
I0
sg39
F10.41
sg40
I3
sg41
I1
sg42
F0.60999999999999999
sg43
F0.38
sg44
F178.72999999999999
sg45
F0.31
sg46
F1.0
sg47
I0
sg48
I1
sg49
I2
sg50
I1
sg51
I0
sg52
I1
sg53
F42.700000000000003
sg54
I1
sg55
I0
sg56
F1.1299999999999999
sg57
F568.79999999999995
sg58
F4.3899999999999997
sg59
F101.40000000000001
sg60
I0
sba(iPocket
Pocket
p85
(dp86
g5
F0.45000000000000001
sg6
F0.84999999999999998
sg7
F0.45000000000000001
sg8
I0
sg9
F0.98999999999999999
sg10
I54
sg11
F50.0
sg12
I2
sg13
F11.85
sg14
F859.19000000000005
sg15
F26.329999999999998
sg16
F317.45999999999998
sg17
I0
sg18
S'PEP'
p87
sg20
I0
sg21
I1
sg22
I1
sg23
S'1lvb_unbound.pdb'
p88
sg25
F0.0
sg26
I1
sg27
F0.23999999999999999
sg28
F3.9199999999999999
sg29
I5
sg30
F4.6399999999999997
sg31
I1
sg32
F0.02
sg33
F0.39000000000000001
sg34
I0
sg35
I0
sg36
I0
sg37
F0.95999999999999996
sg38
I1
sg39
F10.24
sg40
I0
sg41
I0
sg42
F0.64000000000000001
sg43
F0.23999999999999999
sg44
F113.52
sg45
F0.0
sg46
F0.0
sg47
I1
sg48
I0
sg49
I1
sg50
I1
sg51
I1
sg52
I1
sg53
F19.829999999999998
sg54
I0
sg55
I0
sg56
F-1.25
sg57
F568.79999999999995
sg58
F4.1600000000000001
sg59
F203.94
sg60
I0
sba(iPocket
Pocket
p89
(dp90
g5
F0.29999999999999999
sg6
F0.80000000000000004
sg7
F0.55000000000000004
sg8
I0
sg9
F0.91000000000000003
sg10
I39
sg11
F45.829999999999998
sg12
I0
sg13
F8.0
sg14
F755.64999999999998
sg15
F33.060000000000002
sg16
F317.75
sg17
I0
sg18
S'PEP'
p91
sg20
I2
sg21
I0
sg22
I0
sg23
S'1lvb_unbound.pdb'
p92
sg25
F0.0
sg26
I0
sg27
F0.23000000000000001
sg28
F4.1100000000000003
sg29
I6
sg30
F4.6399999999999997
sg31
I1
sg32
F0.050000000000000003
sg33
F0.44
sg34
I0
sg35
I0
sg36
I1
sg37
F0.68999999999999995
sg38
I0
sg39
F9.3599999999999994
sg40
I0
sg41
I1
sg42
F0.63
sg43
F0.23000000000000001
sg44
F121.97
sg45
F0.0
sg46
F0.0
sg47
I1
sg48
I0
sg49
I0
sg50
I1
sg51
I0
sg52
I0
sg53
F36.890000000000001
sg54
I1
sg55
I0
sg56
F-1.25
sg57
F568.79999999999995
sg58
F3.8999999999999999
sg59
F195.78
sg60
I1
sbasS'2b9f'
p93
(lp94
(iPocket
Pocket
p95
(dp96
g5
F0.60999999999999999
sg6
F0.46999999999999997
sg7
F0.0
sg8
I0
sg9
F0.52000000000000002
sg10
I38
sg11
F29.170000000000002
sg12
I3
sg13
F22.829999999999998
sg14
F241.24000000000001
sg15
F24.699999999999999
sg16
F132.63
sg17
I1
sg18
S'PEP'
p97
sg20
I0
sg21
I0
sg22
I0
sg23
S'2b9f_unbound.pdb'
p98
sg25
F0.0
sg26
I0
sg27
F0.63
sg28
F3.1000000000000001
sg29
I0
sg30
F3.6299999999999999
sg31
I0
sg32
F0.17999999999999999
sg33
F0.28999999999999998
sg34
I0
sg35
I0
sg36
I0
sg37
F0.31
sg38
I0
sg39
F8.6199999999999992
sg40
I0
sg41
I0
sg42
F0.45000000000000001
sg43
F0.63
sg44
F71.25
sg45
F0.0
sg46
F0.0
sg47
I3
sg48
I0
sg49
I0
sg50
I1
sg51
I2
sg52
I0
sg53
F52.799999999999997
sg54
I0
sg55
I0
sg56
F-1.25
sg57
F1196.0799999999999
sg58
F3.1499999999999999
sg59
F61.380000000000003
sg60
I0
sba(iPocket
Pocket
p99
(dp100
g5
F0.40000000000000002
sg6
F0.42999999999999999
sg7
F0.42999999999999999
sg8
I0
sg9
F0.40000000000000002
sg10
I36
sg11
F33.329999999999998
sg12
I0
sg13
F15.0
sg14
F345.42000000000002
sg15
F16.079999999999998
sg16
F174.77000000000001
sg17
I0
sg18
S'PEP'
p101
sg20
I1
sg21
I0
sg22
I0
sg23
S'2b9f_unbound.pdb'
p102
sg25
F0.0
sg26
I1
sg27
F0.44
sg28
F4.1100000000000003
sg29
I6
sg30
F3.98
sg31
I0
sg32
F0.02
sg33
F0.17999999999999999
sg34
I1
sg35
I0
sg36
I1
sg37
F0.28999999999999998
sg38
I1
sg39
F6.3700000000000001
sg40
I-1
sg41
I0
sg42
F0.56000000000000005
sg43
F0.44
sg44
F106.27
sg45
F0.0
sg46
F0.0
sg47
I0
sg48
I0
sg49
I1
sg50
I0
sg51
I0
sg52
I2
sg53
F24.109999999999999
sg54
I0
sg55
I0
sg56
F-1.25
sg57
F1196.0799999999999
sg58
F2.8799999999999999
sg59
F68.5
sg60
I1
sba(iPocket
Pocket
p103
(dp104
g5
F0.79000000000000004
sg6
F0.67000000000000004
sg7
F0.28999999999999998
sg8
I0
sg9
F0.60999999999999999
sg10
I60
sg11
F40.0
sg12
I0
sg13
F29.5
sg14
F518.08000000000004
sg15
F23.920000000000002
sg16
F187.44999999999999
sg17
I1
sg18
S'PEP'
p105
sg20
I1
sg21
I1
sg22
I1
sg23
S'2b9f_unbound.pdb'
p106
sg25
F0.0
sg26
I0
sg27
F0.59999999999999998
sg28
F2.5
sg29
I4
sg30
F3.5600000000000001
sg31
I0
sg32
F0.050000000000000003
sg33
F0.14999999999999999
sg34
I0
sg35
I0
sg36
I0
sg37
F0.48999999999999999
sg38
I1
sg39
F10.380000000000001
sg40
I1
sg41
I0
sg42
F0.52000000000000002
sg43
F0.59999999999999998
sg44
F80.909999999999997
sg45
F0.0
sg46
F0.0
sg47
I4
sg48
I0
sg49
I1
sg50
I0
sg51
I0
sg52
I0
sg53
F-7.2000000000000002
sg54
I0
sg55
I0
sg56
F-1.25
sg57
F1196.0799999999999
sg58
F4.5
sg59
F106.54000000000001
sg60
I0
sba(iPocket
Pocket
p107
(dp108
g5
F1.0
sg6
F0.47999999999999998
sg7
F0.35999999999999999
sg8
I0
sg9
F0.53000000000000003
sg10
I44
sg11
F25.0
sg12
I0
sg13
F37.439999999999998
sg14
F586.42999999999995
sg15
F21.420000000000002
sg16
F223.47
sg17
I2
sg18
S'PEP'
p109
sg20
I0
sg21
I1
sg22
I0
sg23
S'2b9f_unbound.pdb'
p110
sg25
F0.0
sg26
I1
sg27
F0.89000000000000001
sg28
F3.8799999999999999
sg29
I5
sg30
F4.4900000000000002
sg31
I0
sg32
F0.25
sg33
F0.46000000000000002
sg34
I0
sg35
I0
sg36
I1
sg37
F0.35999999999999999
sg38
I1
sg39
F8.7300000000000004
sg40
I-1
sg41
I1
sg42
F0.58999999999999997
sg43
F0.89000000000000001
sg44
F150.94999999999999
sg45
F0.0
sg46
F0.0
sg47
I1
sg48
I0
sg49
I0
sg50
I0
sg51
I0
sg52
I0
sg53
F12.380000000000001
sg54
I0
sg55
I0
sg56
F-1.25
sg57
F1196.0799999999999
sg58
F3.2599999999999998
sg59
F72.519999999999996
sg60
I0
sba(iPocket
Pocket
p111
(dp112
g5
F0.40999999999999998
sg6
F0.88
sg7
F0.20999999999999999
sg8
I0
sg9
F1.0
sg10
I68
sg11
F35.710000000000001
sg12
I2
sg13
F15.31
sg14
F710.67999999999995
sg15
F11.58
sg16
F242.58000000000001
sg17
I1
sg18
S'PEP'
p113
sg20
I0
sg21
I1
sg22
I2
sg23
S'2b9f_unbound.pdb'
p114
sg25
F0.0
sg26
I0
sg27
F0.42999999999999999
sg28
F4.0800000000000001
sg29
I3
sg30
F3.7400000000000002
sg31
I1
sg32
F0.02
sg33
F0.26000000000000001
sg34
I0
sg35
I0
sg36
I0
sg37
F0.56000000000000005
sg38
I0
sg39
F17.510000000000002
sg40
I1
sg41
I1
sg42
F0.52000000000000002
sg43
F0.42999999999999999
sg44
F117.14
sg45
F0.0
sg46
F0.0
sg47
I2
sg48
I0
sg49
I0
sg50
I1
sg51
I0
sg52
I1
sg53
F31.25
sg54
I0
sg55
I0
sg56
F-1.25
sg57
F1196.0799999999999
sg58
F5.9400000000000004
sg59
F125.44
sg60
I0
sba(iPocket
Pocket
p115
(dp116
g5
F0.11
sg6
F0.52000000000000002
sg7
F0.42999999999999999
sg8
I0
sg9
F0.52000000000000002
sg10
I58
sg11
F55.170000000000002
sg12
I0
sg13
F4.0
sg14
F552.76999999999998
sg15
F32.780000000000001
sg16
F246.27000000000001
sg17
I1
sg18
S'PEP'
p117
sg20
I1
sg21
I3
sg22
I0
sg23
S'2b9f_unbound.pdb'
p118
sg25
F0.0
sg26
I0
sg27
F0.089999999999999997
sg28
F4.4000000000000004
sg29
I6
sg30
F3.98
sg31
I1
sg32
F0.01
sg33
F0.45000000000000001
sg34
I1
sg35
I0
sg36
I0
sg37
F0.46999999999999997
sg38
I1
sg39
F8.7100000000000009
sg40
I2
sg41
I0
sg42
F0.53000000000000003
sg43
F0.089999999999999997
sg44
F91.780000000000001
sg45
F0.0
sg46
F0.0
sg47
I0
sg48
I0
sg49
I0
sg50
I1
sg51
I0
sg52
I1
sg53
F14.199999999999999
sg54
I0
sg55
I0
sg56
F-1.25
sg57
F1196.0799999999999
sg58
F3.5299999999999998
sg59
F154.49000000000001
sg60
I0
sba(iPocket
Pocket
p119
(dp120
g5
F0.42999999999999999
sg6
F0.66000000000000003
sg7
F0.35999999999999999
sg8
I0
sg9
F0.69999999999999996
sg10
I50
sg11
F40.0
sg12
I0
sg13
F16.109999999999999
sg14
F654.77999999999997
sg15
F19.649999999999999
sg16
F257.68000000000001
sg17
I0
sg18
S'PEP'
p121
sg20
I0
sg21
I0
sg22
I1
sg23
S'2b9f_unbound.pdb'
p122
sg25
F0.0
sg26
I1
sg27
F0.38
sg28
F4.1100000000000003
sg29
I5
sg30
F4.1900000000000004
sg31
I0
sg32
F0.01
sg33
F0.23999999999999999
sg34
I0
sg35
I0
sg36
I0
sg37
F0.40999999999999998
sg38
I2
sg39
F12.02
sg40
I-2
sg41
I1
sg42
F0.65000000000000002
sg43
F0.38
sg44
F89.359999999999999
sg45
F0.0
sg46
F0.0
sg47
I1
sg48
I0
sg49
I1
sg50
I1
sg51
I0
sg52
I1
sg53
F10.220000000000001
sg54
I0
sg55
I0
sg56
F-1.25
sg57
F1196.0799999999999
sg58
F4.4400000000000004
sg59
F168.31999999999999
sg60
I0
sba(iPocket
Pocket
p123
(dp124
g5
F0.23999999999999999
sg6
F0.58999999999999997
sg7
F0.35999999999999999
sg8
I0
sg9
F0.62
sg10
I55
sg11
F53.329999999999998
sg12
I1
sg13
F9.0899999999999999
sg14
F509.38999999999999
sg15
F4.4299999999999997
sg16
F278.81999999999999
sg17
I0
sg18
S'PEP'
p125
sg20
I0
sg21
I1
sg22
I1
sg23
S'2b9f_unbound.pdb'
p126
sg25
F18.289999999999999
sg26
I0
sg27
F0.20000000000000001
sg28
F4.0899999999999999
sg29
I5
sg30
F4.0
sg31
I2
sg32
F0.01
sg33
F0.20000000000000001
sg34
I3
sg35
I0
sg36
I0
sg37
F0.45000000000000001
sg38
I1
sg39
F10.4
sg40
I1
sg41
I0
sg42
F0.54000000000000004
sg43
F0.20000000000000001
sg44
F109.89
sg45
F0.25
sg46
F0.45000000000000001
sg47
I0
sg48
I0
sg49
I1
sg50
I1
sg51
I0
sg52
I0
sg53
F23.18
sg54
I0
sg55
I0
sg56
F-0.02
sg57
F1196.0799999999999
sg58
F3.98
sg59
F168.93000000000001
sg60
I0
sba(iPocket
Pocket
p127
(dp128
g5
F0.46000000000000002
sg6
F1.0
sg7
F0.70999999999999996
sg8
I0
sg9
F0.98999999999999999
sg10
I91
sg11
F44.229999999999997
sg12
I1
sg13
F17.329999999999998
sg14
F553.73000000000002
sg15
F27.440000000000001
sg16
F279.33999999999997
sg17
I0
sg18
S'PEP'
p129
sg20
I2
sg21
I0
sg22
I2
sg23
S'2b9f_unbound.pdb'
p130
sg25
F0.0
sg26
I0
sg27
F0.29999999999999999
sg28
F3.6299999999999999
sg29
I10
sg30
F3.5299999999999998
sg31
I2
sg32
F0.050000000000000003
sg33
F0.40000000000000002
sg34
I2
sg35
I0
sg36
I2
sg37
F0.75
sg38
I1
sg39
F17.420000000000002
sg40
I0
sg41
I2
sg42
F0.44
sg43
F0.29999999999999999
sg44
F120.03
sg45
F0.0
sg46
F0.0
sg47
I0
sg48
I0
sg49
I1
sg50
I0
sg51
I3
sg52
I0
sg53
F25.579999999999998
sg54
I1
sg55
I0
sg56
F-1.25
sg57
F1196.0799999999999
sg58
F6.7199999999999998
sg59
F159.31
sg60
I0
sba(iPocket
Pocket
p131
(dp132
g5
F0.39000000000000001
sg6
F0.75
sg7
F0.35999999999999999
sg8
I0
sg9
F0.62
sg10
I38
sg11
F40.740000000000002
sg12
I0
sg13
F14.59
sg14
F738.86000000000001
sg15
F29.719999999999999
sg16
F323.61000000000001
sg17
I0
sg18
S'PEP'
p133
sg20
I1
sg21
I0
sg22
I1
sg23
S'2b9f_unbound.pdb'
p134
sg25
F0.0
sg26
I0
sg27
F0.45000000000000001
sg28
F3.2999999999999998
sg29
I5
sg30
F4.1699999999999999
sg31
I1
sg32
F0.01
sg33
F0.45000000000000001
sg34
I0
sg35
I0
sg36
I0
sg37
F0.31
sg38
I1
sg39
F10.49
sg40
I1
sg41
I0
sg42
F0.62
sg43
F0.45000000000000001
sg44
F207.71000000000001
sg45
F0.0
sg46
F0.0
sg47
I0
sg48
I0
sg49
I1
sg50
I0
sg51
I3
sg52
I1
sg53
F5.7000000000000002
sg54
I0
sg55
I1
sg56
F-1.25
sg57
F1196.0799999999999
sg58
F5.04
sg59
F115.89
sg60
I0
sba(iPocket
Pocket
p135
(dp136
g5
F0.87
sg6
F0.89000000000000001
sg7
F0.64000000000000001
sg8
I2
sg9
F0.90000000000000002
sg10
I82
sg11
F47.829999999999998
sg12
I0
sg13
F32.399999999999999
sg14
F984.92999999999995
sg15
F17.699999999999999
sg16
F406.51999999999998
sg17
I0
sg18
S'PEP'
p137
sg20
I1
sg21
I0
sg22
I2
sg23
S'2b9f_unbound.pdb'
p138
sg25
F0.0
sg26
I1
sg27
F0.48999999999999999
sg28
F3.3799999999999999
sg29
I9
sg30
F4.1399999999999997
sg31
I0
sg32
F0.19
sg33
F0.14999999999999999
sg34
I0
sg35
I0
sg36
I1
sg37
F0.68000000000000005
sg38
I1
sg39
F15.69
sg40
I0
sg41
I1
sg42
F0.56000000000000005
sg43
F0.48999999999999999
sg44
F229.44999999999999
sg45
F0.0
sg46
F0.0
sg47
I1
sg48
I0
sg49
I2
sg50
I0
sg51
I3
sg52
I1
sg53
F7.5
sg54
I0
sg55
I0
sg56
F-1.25
sg57
F1196.0799999999999
sg58
F5.9500000000000002
sg59
F177.06999999999999
sg60
I0
sba(iPocket
Pocket
p139
(dp140
g5
F0.66000000000000003
sg6
F1.0
sg7
F0.56999999999999995
sg8
I0
sg9
F0.89000000000000001
sg10
I84
sg11
F36.729999999999997
sg12
I3
sg13
F24.530000000000001
sg14
F693.80999999999995
sg15
F35.560000000000002
sg16
F436.73000000000002
sg17
I2
sg18
S'PEP'
p141
sg20
I1
sg21
I1
sg22
I0
sg23
S'2b9f_unbound.pdb'
p142
sg25
F0.0
sg26
I0
sg27
F0.40000000000000002
sg28
F3.8599999999999999
sg29
I8
sg30
F3.6499999999999999
sg31
I1
sg32
F0.080000000000000002
sg33
F0.32000000000000001
sg34
I1
sg35
I0
sg36
I0
sg37
F0.68999999999999995
sg38
I2
sg39
F15.449999999999999
sg40
I2
sg41
I0
sg42
F0.54000000000000004
sg43
F0.40000000000000002
sg44
F212.53999999999999
sg45
F0.0
sg46
F0.0
sg47
I0
sg48
I0
sg49
I3
sg50
I0
sg51
I0
sg52
I0
sg53
F23.5
sg54
I0
sg55
I0
sg56
F-1.25
sg57
F1196.0799999999999
sg58
F6.6799999999999997
sg59
F224.19
sg60
I0
sba(iPocket
Pocket
p143
(dp144
g5
F0.66000000000000003
sg6
F0.97999999999999998
sg7
F1.0
sg8
I3
sg9
F0.95999999999999996
sg10
I121
sg11
F51.670000000000002
sg12
I3
sg13
F24.73
sg14
F1131.6199999999999
sg15
F14.74
sg16
F516.36000000000001
sg17
I0
sg18
S'PEP'
p145
sg20
I1
sg21
I1
sg22
I2
sg23
S'2b9f_unbound.pdb'
p146
sg25
F1.22
sg26
I0
sg27
F0.25
sg28
F4.1500000000000004
sg29
I14
sg30
F4.2400000000000002
sg31
I2
sg32
F0.20999999999999999
sg33
F0.17999999999999999
sg34
I2
sg35
I0
sg36
I1
sg37
F1.0
sg38
I2
sg39
F16.780000000000001
sg40
I2
sg41
I1
sg42
F0.51000000000000001
sg43
F0.25
sg44
F247.46000000000001
sg45
F0.0
sg46
F0.0
sg47
I0
sg48
I0
sg49
I2
sg50
I2
sg51
I2
sg52
I0
sg53
F24.0
sg54
I1
sg55
I1
sg56
F-1.25
sg57
F1196.0799999999999
sg58
F6.5999999999999996
sg59
F268.89999999999998
sg60
I0
sbasS'2f1w'
p147
(lp148
(iPocket
Pocket
p149
(dp150
g5
F0.0
sg6
F0.77000000000000002
sg7
F0.44
sg8
I0
sg9
F0.81999999999999995
sg10
I41
sg11
F53.57
sg12
I0
sg13
F0.0
sg14
F539.25999999999999
sg15
F17.059999999999999
sg16
F216.0
sg17
I0
sg18
S'PEP'
p151
sg20
I1
sg21
I0
sg22
I1
sg23
S'2f1w_unbound.pdb'
p152
sg25
F0.0
sg26
I1
sg27
F0.0
sg28
F3.6200000000000001
sg29
I4
sg30
F3.9500000000000002
sg31
I1
sg32
F0.01
sg33
F0.17999999999999999
sg34
I0
sg35
I0
sg36
I0
sg37
F0.93000000000000005
sg38
I1
sg39
F8.8300000000000001
sg40
I-2
sg41
I0
sg42
F0.68999999999999995
sg43
F0.0
sg44
F70.040000000000006
sg45
F0.0
sg46
F0.0
sg47
I0
sg48
I0
sg49
I0
sg50
I2
sg51
I1
sg52
I0
sg53
F9.5
sg54
I0
sg55
I0
sg56
F-1.25
sg57
F500.37
sg58
F3.4500000000000002
sg59
F145.94999999999999
sg60
I0
sba(iPocket
Pocket
p153
(dp154
g5
F1.0
sg6
F0.93999999999999995
sg7
F1.0
sg8
I0
sg9
F1.0
sg10
I44
sg11
F37.039999999999999
sg12
I1
sg13
F28.879999999999999
sg14
F699.67999999999995
sg15
F19.98
sg16
F327.88999999999999
sg17
I0
sg18
S'PEP'
p155
sg20
I2
sg21
I1
sg22
I1
sg23
S'2f1w_unbound.pdb'
p156
sg25
F0.0
sg26
I0
sg27
F0.72999999999999998
sg28
F4.71
sg29
I9
sg30
F4.0899999999999999
sg31
I1
sg32
F0.79000000000000004
sg33
F0.17999999999999999
sg34
I0
sg35
I0
sg36
I0
sg37
F1.0
sg38
I0
sg39
F11.029999999999999
sg40
I2
sg41
I1
sg42
F0.51000000000000001
sg43
F0.72999999999999998
sg44
F200.47
sg45
F0.0
sg46
F0.0
sg47
I0
sg48
I0
sg49
I0
sg50
I0
sg51
I2
sg52
I1
sg53
F30.0
sg54
I0
sg55
I1
sg56
F-1.25
sg57
F500.37
sg58
F4.1799999999999997
sg59
F127.43000000000001
sg60
I3
sbasS'1r6j'
p157
(lp158
(iPocket
Pocket
p159
(dp160
g5
F1.0
sg6
F0.94999999999999996
sg7
F0.78000000000000003
sg8
I2
sg9
F1.0
sg10
I58
sg11
F34.289999999999999
sg12
I1
sg13
F25.850000000000001
sg14
F567.57000000000005
sg15
F1.0800000000000001
sg16
F299.50999999999999
sg17
I2
sg18
S'PEP'
p161
sg20
I1
sg21
I0
sg22
I0
sg23
S'1r6j_unbound.pdb'
p162
sg25
F49.299999999999997
sg26
I1
sg27
F0.46999999999999997
sg28
F4.0
sg29
I7
sg30
F4.0700000000000003
sg31
I0
sg32
F0.69999999999999996
sg33
F0.11
sg34
I0
sg35
I1
sg36
I0
sg37
F1.0
sg38
I0
sg39
F9.1699999999999999
sg40
I0
sg41
I2
sg42
F0.58999999999999997
sg43
F0.46999999999999997
sg44
F202.88
sg45
F0.93000000000000005
sg46
F1.0
sg47
I1
sg48
I1
sg49
I1
sg50
I0
sg51
I1
sg52
I0
sg53
F32.0
sg54
I0
sg55
I0
sg56
F1.9099999999999999
sg57
F548.96000000000004
sg58
F4.2300000000000004
sg59
F96.629999999999995
sg60
I0
sbasS'2hwq'
p163
(lp164
(iPocket
Pocket
p165
(dp166
g5
F0.20999999999999999
sg6
F0.33000000000000002
sg7
F0.25
sg8
I0
sg9
F0.28999999999999998
sg10
I48
sg11
F39.289999999999999
sg12
I1
sg13
F16.329999999999998
sg14
F576.49000000000001
sg15
F27.120000000000001
sg16
F218.87
sg17
I0
sg18
S'PEP'
p167
sg20
I0
sg21
I1
sg22
I1
sg23
S'2hwq_unbound.pdb'
p168
sg25
F0.0
sg26
I0
sg27
F0.38
sg28
F3.6200000000000001
sg29
I5
sg30
F3.8300000000000001
sg31
I2
sg32
F0.01
sg33
F0.14000000000000001
sg34
I0
sg35
I0
sg36
I0
sg37
F0.10000000000000001
sg38
I1
sg39
F9.0700000000000003
sg40
I1
sg41
I0
sg42
F0.55000000000000004
sg43
F0.38
sg44
F111.09999999999999
sg45
F0.0
sg46
F0.0
sg47
I0
sg48
I0
sg49
I1
sg50
I0
sg51
I1
sg52
I0
sg53
F-4.0
sg54
I0
sg55
I0
sg56
F-1.25
sg57
F1196.1600000000001
sg58
F4.1900000000000004
sg59
F107.77
sg60
I0
sba(iPocket
Pocket
p169
(dp170
g5
F0.20999999999999999
sg6
F0.33000000000000002
sg7
F0.25
sg8
I0
sg9
F0.28999999999999998
sg10
I48
sg11
F39.289999999999999
sg12
I1
sg13
F16.329999999999998
sg14
F573.32000000000005
sg15
F27.940000000000001
sg16
F218.87
sg17
I0
sg18
S'PEP'
p171
sg20
I0
sg21
I1
sg22
I1
sg23
S'2hwq_unbound.pdb'
p172
sg25
F0.0
sg26
I0
sg27
F0.38
sg28
F3.6200000000000001
sg29
I5
sg30
F3.8300000000000001
sg31
I2
sg32
F0.01
sg33
F0.14000000000000001
sg34
I0
sg35
I0
sg36
I0
sg37
F0.10000000000000001
sg38
I1
sg39
F9.0700000000000003
sg40
I1
sg41
I0
sg42
F0.55000000000000004
sg43
F0.38
sg44
F111.09999999999999
sg45
F0.0
sg46
F0.0
sg47
I0
sg48
I0
sg49
I1
sg50
I0
sg51
I1
sg52
I0
sg53
F-4.0
sg54
I0
sg55
I0
sg56
F-1.25
sg57
F910.27999999999997
sg58
F4.1900000000000004
sg59
F107.77
sg60
I0
sba(iPocket
Pocket
p173
(dp174
g5
F0.13
sg6
F0.28999999999999998
sg7
F0.20000000000000001
sg8
I0
sg9
F0.35999999999999999
sg10
I53
sg11
F53.57
sg12
I2
sg13
F10.0
sg14
F405.30000000000001
sg15
F31.34
sg16
F221.97999999999999
sg17
I1
sg18
S'PEP'
p175
sg20
I1
sg21
I0
sg22
I0
sg23
S'2hwq_unbound.pdb'
p176
sg25
F0.0
sg26
I1
sg27
F0.20999999999999999
sg28
F3.8999999999999999
sg29
I4
sg30
F3.6200000000000001
sg31
I0
sg32
F0.029999999999999999
sg33
F0.11
sg34
I0
sg35
I0
sg36
I0
sg37
F0.12
sg38
I1
sg39
F11.42
sg40
I-1
sg41
I0
sg42
F0.45000000000000001
sg43
F0.20999999999999999
sg44
F73.670000000000002
sg45
F0.0
sg46
F0.0
sg47
I0
sg48
I0
sg49
I1
sg50
I1
sg51
I1
sg52
I1
sg53
F37.899999999999999
sg54
I0
sg55
I0
sg56
F-1.25
sg57
F1196.1600000000001
sg58
F3.6800000000000002
sg59
F148.31999999999999
sg60
I0
sba(iPocket
Pocket
p177
(dp178
g5
F0.13
sg6
F0.28999999999999998
sg7
F0.20000000000000001
sg8
I0
sg9
F0.35999999999999999
sg10
I53
sg11
F53.57
sg12
I2
sg13
F10.0
sg14
F375.42000000000002
sg15
F30.960000000000001
sg16
F221.97999999999999
sg17
I1
sg18
S'PEP'
p179
sg20
I1
sg21
I0
sg22
I0
sg23
S'2hwq_unbound.pdb'
p180
sg25
F0.0
sg26
I1
sg27
F0.20999999999999999
sg28
F3.8999999999999999
sg29
I4
sg30
F3.6200000000000001
sg31
I0
sg32
F0.029999999999999999
sg33
F0.11
sg34
I0
sg35
I0
sg36
I0
sg37
F0.12
sg38
I1
sg39
F11.42
sg40
I-1
sg41
I0
sg42
F0.45000000000000001
sg43
F0.20999999999999999
sg44
F73.670000000000002
sg45
F0.0
sg46
F0.0
sg47
I0
sg48
I0
sg49
I1
sg50
I1
sg51
I1
sg52
I1
sg53
F37.899999999999999
sg54
I0
sg55
I0
sg56
F-1.25
sg57
F910.27999999999997
sg58
F3.6800000000000002
sg59
F148.31999999999999
sg60
I0
sba(iPocket
Pocket
p181
(dp182
g5
F0.089999999999999997
sg6
F0.26000000000000001
sg7
F0.25
sg8
I0
sg9
F0.32000000000000001
sg10
I44
sg11
F41.380000000000003
sg12
I0
sg13
F7.0
sg14
F498.32999999999998
sg15
F25.489999999999998
sg16
F257.31999999999999
sg17
I1
sg18
S'PEP'
p183
sg20
I0
sg21
I0
sg22
I0
sg23
S'2hwq_unbound.pdb'
p184
sg25
F0.0
sg26
I0
sg27
F0.17999999999999999
sg28
F3.4399999999999999
sg29
I5
sg30
F4.3200000000000003
sg31
I1
sg32
F0.01
sg33
F0.23000000000000001
sg34
I0
sg35
I0
sg36
I1
sg37
F0.10000000000000001
sg38
I2
sg39
F9.8800000000000008
sg40
I-1
sg41
I0
sg42
F0.65000000000000002
sg43
F0.17999999999999999
sg44
F74.870000000000005
sg45
F0.0
sg46
F0.0
sg47
I1
sg48
I0
sg49
I1
sg50
I1
sg51
I0
sg52
I1
sg53
F11.779999999999999
sg54
I0
sg55
I0
sg56
F-1.25
sg57
F1196.1600000000001
sg58
F3.3500000000000001
sg59
F182.44999999999999
sg60
I0
sba(iPocket
Pocket
p185
(dp186
g5
F0.089999999999999997
sg6
F0.26000000000000001
sg7
F0.25
sg8
I0
sg9
F0.32000000000000001
sg10
I44
sg11
F41.380000000000003
sg12
I0
sg13
F7.0
sg14
F528.38999999999999
sg15
F25.68
sg16
F257.31999999999999
sg17
I1
sg18
S'PEP'
p187
sg20
I0
sg21
I0
sg22
I0
sg23
S'2hwq_unbound.pdb'
p188
sg25
F0.0
sg26
I0
sg27
F0.17999999999999999
sg28
F3.4399999999999999
sg29
I5
sg30
F4.3200000000000003
sg31
I1
sg32
F0.01
sg33
F0.23000000000000001
sg34
I0
sg35
I0
sg36
I1
sg37
F0.10000000000000001
sg38
I2
sg39
F9.8800000000000008
sg40
I-1
sg41
I0
sg42
F0.65000000000000002
sg43
F0.17999999999999999
sg44
F74.870000000000005
sg45
F0.0
sg46
F0.0
sg47
I1
sg48
I0
sg49
I1
sg50
I1
sg51
I0
sg52
I1
sg53
F11.779999999999999
sg54
I0
sg55
I0
sg56
F-1.25
sg57
F910.27999999999997
sg58
F3.3500000000000001
sg59
F182.44999999999999
sg60
I0
sba(iPocket
Pocket
p189
(dp190
g5
F0.23000000000000001
sg6
F0.27000000000000002
sg7
F0.25
sg8
I0
sg9
F0.28999999999999998
sg10
I40
sg11
F48.0
sg12
I1
sg13
F18.0
sg14
F826.45000000000005
sg15
F35.409999999999997
sg16
F278.00999999999999
sg17
I0
sg18
S'PEP'
p191
sg20
I1
sg21
I1
sg22
I0
sg23
S'2hwq_unbound.pdb'
p192
sg25
F0.0
sg26
I1
sg27
F0.46999999999999997
sg28
F3.75
sg29
I5
sg30
F4.6600000000000001
sg31
I0
sg32
F0.01
sg33
F0.20999999999999999
sg34
I0
sg35
I0
sg36
I0
sg37
F0.089999999999999997
sg38
I2
sg39
F8.9900000000000002
sg40
I-2
sg41
I0
sg42
F0.65000000000000002
sg43
F0.46999999999999997
sg44
F106.27
sg45
F0.0
sg46
F0.0
sg47
I0
sg48
I0
sg49
I0
sg50
I0
sg51
I1
sg52
I1
sg53
F5.6200000000000001
sg54
I0
sg55
I0
sg56
F-1.25
sg57
F1196.1600000000001
sg58
F3.3999999999999999
sg59
F171.74000000000001
sg60
I0
sba(iPocket
Pocket
p193
(dp194
g5
F0.23000000000000001
sg6
F0.27000000000000002
sg7
F0.25
sg8
I0
sg9
F0.28999999999999998
sg10
I40
sg11
F48.0
sg12
I1
sg13
F18.0
sg14
F884.78999999999996
sg15
F35.0
sg16
F278.00999999999999
sg17
I0
sg18
S'PEP'
p195
sg20
I1
sg21
I1
sg22
I0
sg23
S'2hwq_unbound.pdb'
p196
sg25
F0.0
sg26
I1
sg27
F0.46999999999999997
sg28
F3.75
sg29
I5
sg30
F4.6600000000000001
sg31
I0
sg32
F0.01
sg33
F0.20999999999999999
sg34
I0
sg35
I0
sg36
I0
sg37
F0.089999999999999997
sg38
I2
sg39
F8.9900000000000002
sg40
I-2
sg41
I0
sg42
F0.65000000000000002
sg43
F0.46999999999999997
sg44
F106.27
sg45
F0.0
sg46
F0.0
sg47
I0
sg48
I0
sg49
I0
sg50
I0
sg51
I1
sg52
I1
sg53
F5.6200000000000001
sg54
I0
sg55
I0
sg56
F-1.25
sg57
F910.27999999999997
sg58
F3.3999999999999999
sg59
F171.74000000000001
sg60
I0
sba(iPocket
Pocket
p197
(dp198
g5
F0.33000000000000002
sg6
F0.40999999999999998
sg7
F0.29999999999999999
sg8
I0
sg9
F0.33000000000000002
sg10
I67
sg11
F42.859999999999999
sg12
I0
sg13
F25.809999999999999
sg14
F404.38
sg15
F19.34
sg16
F305.08999999999997
sg17
I2
sg18
S'PEP'
p199
sg20
I1
sg21
I0
sg22
I1
sg23
S'2hwq_unbound.pdb'
p200
sg25
F0.0
sg26
I0
sg27
F0.46000000000000002
sg28
F3.29
sg29
I6
sg30
F3.3599999999999999
sg31
I1
sg32
F0.01
sg33
F0.56000000000000005
sg34
I0
sg35
I0
sg36
I1
sg37
F0.14999999999999999
sg38
I2
sg39
F10.24
sg40
I-1
sg41
I0
sg42
F0.35999999999999999
sg43
F0.46000000000000002
sg44
F111.09999999999999
sg45
F0.0
sg46
F0.0
sg47
I2
sg48
I0
sg49
I1
sg50
I2
sg51
I0
sg52
I0
sg53
F16.210000000000001
sg54
I1
sg55
I0
sg56
F-1.25
sg57
F1196.1600000000001
sg58
F5.1900000000000004
sg59
F193.99000000000001
sg60
I0
sba(iPocket
Pocket
p201
(dp202
g5
F0.33000000000000002
sg6
F0.40999999999999998
sg7
F0.29999999999999999
sg8
I0
sg9
F0.33000000000000002
sg10
I67
sg11
F42.859999999999999
sg12
I0
sg13
F25.809999999999999
sg14
F421.14999999999998
sg15
F19.030000000000001
sg16
F305.08999999999997
sg17
I2
sg18
S'PEP'
p203
sg20
I1
sg21
I0
sg22
I1
sg23
S'2hwq_unbound.pdb'
p204
sg25
F0.0
sg26
I0
sg27
F0.46000000000000002
sg28
F3.29
sg29
I6
sg30
F3.3599999999999999
sg31
I1
sg32
F0.01
sg33
F0.56000000000000005
sg34
I0
sg35
I0
sg36
I1
sg37
F0.14999999999999999
sg38
I2
sg39
F10.24
sg40
I-1
sg41
I0
sg42
F0.35999999999999999
sg43
F0.46000000000000002
sg44
F111.09999999999999
sg45
F0.0
sg46
F0.0
sg47
I2
sg48
I0
sg49
I1
sg50
I2
sg51
I0
sg52
I0
sg53
F16.210000000000001
sg54
I1
sg55
I0
sg56
F-1.25
sg57
F910.27999999999997
sg58
F5.1900000000000004
sg59
F193.99000000000001
sg60
I0
sba(iPocket
Pocket
p205
(dp206
g5
F0.41999999999999998
sg6
F0.34000000000000002
sg7
F0.14999999999999999
sg8
I0
sg9
F0.40999999999999998
sg10
I44
sg11
F25.93
sg12
I0
sg13
F33.43
sg14
F822.63999999999999
sg15
F26.649999999999999
sg16
F311.87
sg17
I1
sg18
S'PEP'
p207
sg20
I0
sg21
I0
sg22
I0
sg23
S'2hwq_unbound.pdb'
p208
sg25
F0.0
sg26
I0
sg27
F0.80000000000000004
sg28
F4.0
sg29
I3
sg30
F4.3899999999999997
sg31
I1
sg32
F0.040000000000000001
sg33
F0.67000000000000004
sg34
I0
sg35
I0
sg36
I0
sg37
F0.10000000000000001
sg38
I0
sg39
F12.949999999999999
sg40
I2
sg41
I0
sg42
F0.63
sg43
F0.80000000000000004
sg44
F237.38999999999999
sg45
F0.0
sg46
F0.0
sg47
I0
sg48
I0
sg49
I2
sg50
I0
sg51
I0
sg52
I0
sg53
F38.5
sg54
I2
sg55
I0
sg56
F-1.25
sg57
F1196.1600000000001
sg58
F4.2599999999999998
sg59
F74.480000000000004
sg60
I0
sba(iPocket
Pocket
p209
(dp210
g5
F0.41999999999999998
sg6
F0.34000000000000002
sg7
F0.14999999999999999
sg8
I0
sg9
F0.40999999999999998
sg10
I44
sg11
F25.93
sg12
I0
sg13
F33.43
sg14
F796.77999999999997
sg15
F34.539999999999999
sg16
F311.87
sg17
I1
sg18
S'PEP'
p211
sg20
I0
sg21
I0
sg22
I0
sg23
S'2hwq_unbound.pdb'
p212
sg25
F0.0
sg26
I0
sg27
F0.80000000000000004
sg28
F4.0
sg29
I3
sg30
F4.3899999999999997
sg31
I1
sg32
F0.040000000000000001
sg33
F0.67000000000000004
sg34
I0
sg35
I0
sg36
I0
sg37
F0.10000000000000001
sg38
I0
sg39
F12.949999999999999
sg40
I2
sg41
I0
sg42
F0.63
sg43
F0.80000000000000004
sg44
F237.38999999999999
sg45
F0.0
sg46
F0.0
sg47
I0
sg48
I0
sg49
I2
sg50
I0
sg51
I0
sg52
I0
sg53
F38.5
sg54
I2
sg55
I0
sg56
F-1.25
sg57
F910.27999999999997
sg58
F4.2599999999999998
sg59
F74.480000000000004
sg60
I0
sba(iPocket
Pocket
p213
(dp214
g5
F0.33000000000000002
sg6
F0.38
sg7
F0.34999999999999998
sg8
I2
sg9
F0.35999999999999999
sg10
I67
sg11
F36.109999999999999
sg12
I0
sg13
F25.859999999999999
sg14
F977.63999999999999
sg15
F19.66
sg16
F417.92000000000002
sg17
I2
sg18
S'PEP'
p215
sg20
I2
sg21
I0
sg22
I0
sg23
S'2hwq_unbound.pdb'
p216
sg25
F0.0
sg26
I0
sg27
F0.42999999999999999
sg28
F2.9199999999999999
sg29
I7
sg30
F4.4800000000000004
sg31
I0
sg32
F0.01
sg33
F0.5
sg34
I0
sg35
I0
sg36
I0
sg37
F0.14999999999999999
sg38
I1
sg39
F11.27
sg40
I1
sg41
I0
sg42
F0.46999999999999997
sg43
F0.42999999999999999
sg44
F222.19999999999999
sg45
F0.0
sg46
F0.0
sg47
I3
sg48
I0
sg49
I2
sg50
I1
sg51
I0
sg52
I0
sg53
F9.9199999999999999
sg54
I0
sg55
I0
sg56
F-1.25
sg57
F1196.1600000000001
sg58
F4.79
sg59
F195.71000000000001
sg60
I0
sba(iPocket
Pocket
p217
(dp218
g5
F0.33000000000000002
sg6
F0.38
sg7
F0.34999999999999998
sg8
I2
sg9
F0.35999999999999999
sg10
I67
sg11
F36.109999999999999
sg12
I0
sg13
F25.859999999999999
sg14
F950.52999999999997
sg15
F26.59
sg16
F417.92000000000002
sg17
I2
sg18
S'PEP'
p219
sg20
I2
sg21
I0
sg22
I0
sg23
S'2hwq_unbound.pdb'
p220
sg25
F0.0
sg26
I0
sg27
F0.42999999999999999
sg28
F2.9199999999999999
sg29
I7
sg30
F4.4800000000000004
sg31
I0
sg32
F0.01
sg33
F0.5
sg34
I0
sg35
I0
sg36
I0
sg37
F0.14999999999999999
sg38
I1
sg39
F11.27
sg40
I1
sg41
I0
sg42
F0.46999999999999997
sg43
F0.42999999999999999
sg44
F222.19999999999999
sg45
F0.0
sg46
F0.0
sg47
I3
sg48
I0
sg49
I2
sg50
I1
sg51
I0
sg52
I0
sg53
F9.9199999999999999
sg54
I0
sg55
I0
sg56
F-1.25
sg57
F910.27999999999997
sg58
F4.79
sg59
F195.71000000000001
sg60
I0
sba(iPocket
Pocket
p221
(dp222
g5
F1.0
sg6
F1.0
sg7
F1.0
sg8
I2
sg9
F1.0
sg10
I453
sg11
F30.850000000000001
sg12
I11
sg13
F79.189999999999998
sg14
F3161.71
sg15
F14.65
sg16
F1446.1500000000001
sg17
I6
sg18
S'PEP'
p223
sg20
I3
sg21
I0
sg22
I2
sg23
S'2hwq_unbound.pdb'
p224
sg25
F0.0
sg26
I2
sg27
F0.65000000000000002
sg28
F3.7999999999999998
sg29
I20
sg30
F3.8799999999999999
sg31
I1
sg32
F0.85999999999999999
sg33
F0.32000000000000001
sg34
I2
sg35
I0
sg36
I1
sg37
F1.0
sg38
I5
sg39
F33.399999999999999
sg40
I-3
sg41
I2
sg42
F0.47999999999999998
sg43
F0.65000000000000002
sg44
F951.61000000000001
sg45
F0.0
sg46
F0.0
sg47
I7
sg48
I0
sg49
I3
sg50
I3
sg51
I2
sg52
I1
sg53
F37.310000000000002
sg54
I5
sg55
I1
sg56
F-1.25
sg57
F1196.1600000000001
sg58
F12.6
sg59
F494.54000000000002
sg60
I0
sba(iPocket
Pocket
p225
(dp226
g5
F1.0
sg6
F1.0
sg7
F1.0
sg8
I2
sg9
F1.0
sg10
I453
sg11
F30.850000000000001
sg12
I11
sg13
F79.189999999999998
sg14
F3108.48
sg15
F15.01
sg16
F1446.1500000000001
sg17
I6
sg18
S'PEP'
p227
sg20
I3
sg21
I0
sg22
I2
sg23
S'2hwq_unbound.pdb'
p228
sg25
F0.0
sg26
I2
sg27
F0.65000000000000002
sg28
F3.7999999999999998
sg29
I20
sg30
F3.8799999999999999
sg31
I1
sg32
F0.85999999999999999
sg33
F0.32000000000000001
sg34
I2
sg35
I0
sg36
I1
sg37
F1.0
sg38
I5
sg39
F33.399999999999999
sg40
I-3
sg41
I2
sg42
F0.47999999999999998
sg43
F0.65000000000000002
sg44
F951.61000000000001
sg45
F0.0
sg46
F0.0
sg47
I7
sg48
I0
sg49
I3
sg50
I3
sg51
I2
sg52
I1
sg53
F37.310000000000002
sg54
I5
sg55
I1
sg56
F-1.25
sg57
F910.27999999999997
sg58
F12.6
sg59
F494.54000000000002
sg60
I0
sbasS'2znn'
p229
(lp230
(iPocket
Pocket
p231
(dp232
g5
F0.46000000000000002
sg6
F0.29999999999999999
sg7
F0.25
sg8
I1
sg9
F0.40999999999999998
sg10
I40
sg11
F20.829999999999998
sg12
I1
sg13
F31.579999999999998
sg14
F152.59
sg15
F28.670000000000002
sg16
F105.83
sg17
I1
sg18
S'PEP'
p233
sg20
I0
sg21
I1
sg22
I0
sg23
S'2znn_unbound.pdb'
p234
sg25
F0.0
sg26
I0
sg27
F0.81999999999999995
sg28
F3.6200000000000001
sg29
I3
sg30
F3.3799999999999999
sg31
I0
sg32
F0.029999999999999999
sg33
F0.20000000000000001
sg34
I0
sg35
I0
sg36
I1
sg37
F0.19
sg38
I0
sg39
F6.8499999999999996
sg40
I1
sg41
I0
sg42
F0.44
sg43
F0.81999999999999995
sg44
F83.329999999999998
sg45
F0.0
sg46
F0.0
sg47
I1
sg48
I0
sg49
I0
sg50
I0
sg51
I1
sg52
I0
sg53
F33.25
sg54
I1
sg55
I0
sg56
F-1.25
sg57
F1063.6099999999999
sg58
F2.6099999999999999
sg59
F22.5
sg60
I0
sba(iPocket
Pocket
p235
(dp236
g5
F0.31
sg6
F0.31
sg7
F0.33000000000000002
sg8
I0
sg9
F0.39000000000000001
sg10
I44
sg11
F38.460000000000001
sg12
I1
sg13
F21.0
sg14
F522.23000000000002
sg15
F24.66
sg16
F216.03
sg17
I1
sg18
S'PEP'
p237
sg20
I0
sg21
I0
sg22
I0
sg23
S'2znn_unbound.pdb'
p238
sg25
F0.0
sg26
I0
sg27
F0.5
sg28
F4.0
sg29
I4
sg30
F4.6900000000000004
sg31
I2
sg32
F0.02
sg33
F0.14000000000000001
sg34
I0
sg35
I0
sg36
I0
sg37
F0.20999999999999999
sg38
I1
sg39
F6.54
sg40
I0
sg41
I0
sg42
F0.70999999999999996
sg43
F0.5
sg44
F119.56
sg45
F0.0
sg46
F0.0
sg47
I0
sg48
I0
sg49
I1
sg50
I1
sg51
I0
sg52
I1
sg53
F27.379999999999999
sg54
I0
sg55
I0
sg56
F-1.25
sg57
F1063.6099999999999
sg58
F2.7400000000000002
sg59
F96.480000000000004
sg60
I0
sba(iPocket
Pocket
p239
(dp240
g5
F0.28000000000000003
sg6
F0.47999999999999998
sg7
F0.5
sg8
I0
sg9
F0.55000000000000004
sg10
I55
sg11
F43.75
sg12
I1
sg13
F19.0
sg14
F403.73000000000002
sg15
F16.98
sg16
F239.63999999999999
sg17
I1
sg18
S'PEP'
p241
sg20
I0
sg21
I2
sg22
I1
sg23
S'2znn_unbound.pdb'
p242
sg25
F0.0
sg26
I1
sg27
F0.35999999999999999
sg28
F4.3300000000000001
sg29
I6
sg30
F3.7000000000000002
sg31
I1
sg32
F0.02
sg33
F0.51000000000000001
sg34
I0
sg35
I0
sg36
I0
sg37
F0.26000000000000001
sg38
I0
sg39
F9.5099999999999998
sg40
I2
sg41
I1
sg42
F0.46999999999999997
sg43
F0.35999999999999999
sg44
F123.18000000000001
sg45
F0.0
sg46
F0.0
sg47
I0
sg48
I0
sg49
I1
sg50
I1
sg51
I2
sg52
I0
sg53
F23.670000000000002
sg54
I0
sg55
I0
sg56
F-1.25
sg57
F1063.6099999999999
sg58
F4.1600000000000001
sg59
F116.45999999999999
sg60
I0
sba(iPocket
Pocket
p243
(dp244
g5
F0.25
sg6
F0.41999999999999998
sg7
F0.17000000000000001
sg8
I0
sg9
F0.5
sg10
I55
sg11
F45.159999999999997
sg12
I2
sg13
F17.0
sg14
F645.48000000000002
sg15
F31.899999999999999
sg16
F257.19
sg17
I1
sg18
S'PEP'
p245
sg20
I0
sg21
I0
sg22
I1
sg23
S'2znn_unbound.pdb'
p246
sg25
F0.0
sg26
I1
sg27
F0.33000000000000002
sg28
F4.0
sg29
I2
sg30
F4.1299999999999999
sg31
I1
sg32
F0.029999999999999999
sg33
F0.20999999999999999
sg34
I0
sg35
I0
sg36
I0
sg37
F0.26000000000000001
sg38
I0
sg39
F8.6400000000000006
sg40
I-1
sg41
I0
sg42
F0.53000000000000003
sg43
F0.33000000000000002
sg44
F147.33000000000001
sg45
F0.0
sg46
F0.0
sg47
I1
sg48
I0
sg49
I0
sg50
I1
sg51
I0
sg52
I2
sg53
F39.0
sg54
I0
sg55
I0
sg56
F-1.25
sg57
F1063.6099999999999
sg58
F3.7000000000000002
sg59
F109.86
sg60
I0
sba(iPocket
Pocket
p247
(dp248
g5
F0.10000000000000001
sg6
F0.44
sg7
F0.41999999999999998
sg8
I0
sg9
F0.5
sg10
I39
sg11
F53.850000000000001
sg12
I0
sg13
F7.0
sg14
F587.95000000000005
sg15
F12.029999999999999
sg16
F274.77999999999997
sg17
I1
sg18
S'PEP'
p249
sg20
I0
sg21
I1
sg22
I1
sg23
S'2znn_unbound.pdb'
p250
sg25
F1.3300000000000001
sg26
I0
sg27
F0.20999999999999999
sg28
F3.3300000000000001
sg29
I5
sg30
F4.2199999999999998
sg31
I0
sg32
F0.01
sg33
F0.40000000000000002
sg34
I0
sg35
I0
sg36
I0
sg37
F0.17999999999999999
sg38
I2
sg39
F8.7300000000000004
sg40
I1
sg41
I0
sg42
F0.56999999999999995
sg43
F0.20999999999999999
sg44
F113.52
sg45
F0.0
sg46
F0.0
sg47
I0
sg48
I0
sg49
I2
sg50
I0
sg51
I2
sg52
I0
sg53
F-3.5600000000000001
sg54
I0
sg55
I0
sg56
F-1.25
sg57
F1063.6099999999999
sg58
F3.8700000000000001
sg59
F161.25999999999999
sg60
I0
sba(iPocket
Pocket
p251
(dp252
g5
F0.57999999999999996
sg6
F0.66000000000000003
sg7
F0.57999999999999996
sg8
I1
sg9
F0.70999999999999996
sg10
I76
sg11
F29.550000000000001
sg12
I4
sg13
F39.75
sg14
F593.05999999999995
sg15
F2.73
sg16
F275.81
sg17
I0
sg18
S'PEP'
p253
sg20
I0
sg21
I0
sg22
I0
sg23
S'2znn_unbound.pdb'
p254
sg25
F38.670000000000002
sg26
I0
sg27
F0.85999999999999999
sg28
F4.4299999999999997
sg29
I7
sg30
F3.8399999999999999
sg31
I0
sg32
F0.23999999999999999
sg33
F0.32000000000000001
sg34
I0
sg35
I1
sg36
I1
sg37
F0.35999999999999999
sg38
I1
sg39
F12.77
sg40
I0
sg41
I3
sg42
F0.51000000000000001
sg43
F0.85999999999999999
sg44
F240.31999999999999
sg45
F0.64000000000000001
sg46
F1.0
sg47
I2
sg48
I1
sg49
I1
sg50
I0
sg51
I1
sg52
I0
sg53
F48.859999999999999
sg54
I0
sg55
I0
sg56
F1.5600000000000001
sg57
F1063.6099999999999
sg58
F5.75
sg59
F35.490000000000002
sg60
I0
sba(iPocket
Pocket
p255
(dp256
g5
F0.42999999999999999
sg6
F0.52000000000000002
sg7
F0.41999999999999998
sg8
I0
sg9
F0.58999999999999997
sg10
I51
sg11
F44.829999999999998
sg12
I1
sg13
F29.699999999999999
sg14
F706.61000000000001
sg15
F9.1600000000000001
sg16
F280.63
sg17
I0
sg18
S'PEP'
p257
sg20
I0
sg21
I0
sg22
I0
sg23
S'2znn_unbound.pdb'
p258
sg25
F1.3300000000000001
sg26
I2
sg27
F0.65000000000000002
sg28
F4.8899999999999997
sg29
I5
sg30
F3.6899999999999999
sg31
I0
sg32
F0.029999999999999999
sg33
F0.40999999999999998
sg34
I0
sg35
I0
sg36
I0
sg37
F0.23999999999999999
sg38
I1
sg39
F10.41
sg40
I-2
sg41
I1
sg42
F0.54000000000000004
sg43
F0.65000000000000002
sg44
F185.30000000000001
sg45
F0.0
sg46
F0.0
sg47
I0
sg48
I0
sg49
I0
sg50
I1
sg51
I1
sg52
I1
sg53
F31.109999999999999
sg54
I0
sg55
I1
sg56
F-1.25
sg57
F1063.6099999999999
sg58
F4.5099999999999998
sg59
F95.329999999999998
sg60
I0
sba(iPocket
Pocket
p259
(dp260
g5
F0.46999999999999997
sg6
F0.5
sg7
F0.57999999999999996
sg8
I0
sg9
F0.53000000000000003
sg10
I39
sg11
F28.0
sg12
I2
sg13
F32.0
sg14
F661.90999999999997
sg15
F14.9
sg16
F289.72000000000003
sg17
I0
sg18
S'PEP'
p261
sg20
I0
sg21
I0
sg22
I0
sg23
S'2znn_unbound.pdb'
p262
sg25
F0.0
sg26
I1
sg27
F0.87
sg28
F5.0
sg29
I7
sg30
F4.2699999999999996
sg31
I0
sg32
F0.040000000000000001
sg33
F0.35999999999999999
sg34
I1
sg35
I0
sg36
I1
sg37
F0.17999999999999999
sg38
I1
sg39
F9.1699999999999999
sg40
I1
sg41
I1
sg42
F0.60999999999999999
sg43
F0.87
sg44
F203.65000000000001
sg45
F0.0
sg46
F0.0
sg47
I0
sg48
I0
sg49
I1
sg50
I0
sg51
I0
sg52
I0
sg53
F27.800000000000001
sg54
I0
sg55
I2
sg56
F-1.25
sg57
F1063.6099999999999
sg58
F4.3799999999999999
sg59
F86.069999999999993
sg60
I0
sba(iPocket
Pocket
p263
(dp264
g5
F0.17999999999999999
sg6
F0.53000000000000003
sg7
F0.57999999999999996
sg8
I0
sg9
F0.57999999999999996
sg10
I55
sg11
F48.479999999999997
sg12
I1
sg13
F12.43
sg14
F902.03999999999996
sg15
F29.890000000000001
sg16
F324.86000000000001
sg17
I0
sg18
S'PEP'
p265
sg20
I2
sg21
I2
sg22
I1
sg23
S'2znn_unbound.pdb'
p266
sg25
F0.0
sg26
I0
sg27
F0.25
sg28
F3.9199999999999999
sg29
I7
sg30
F4.3200000000000003
sg31
I0
sg32
F0.02
sg33
F0.20000000000000001
sg34
I0
sg35
I0
sg36
I0
sg37
F0.26000000000000001
sg38
I1
sg39
F10.23
sg40
I3
sg41
I0
sg42
F0.55000000000000004
sg43
F0.25
sg44
F150.69999999999999
sg45
F0.0
sg46
F0.0
sg47
I0
sg48
I0
sg49
I2
sg50
I0
sg51
I1
sg52
I0
sg53
F16.079999999999998
sg54
I2
sg55
I0
sg56
F-1.25
sg57
F1063.6099999999999
sg58
F4.5999999999999996
sg59
F174.16
sg60
I0
sba(iPocket
Pocket
p267
(dp268
g5
F0.66000000000000003
sg6
F0.67000000000000004
sg7
F1.0
sg8
I1
sg9
F0.71999999999999997
sg10
I151
sg11
F36.840000000000003
sg12
I2
sg13
F45.630000000000003
sg14
F720.88999999999999
sg15
F15.539999999999999
sg16
F385.23000000000002
sg17
I1
sg18
S'PEP'
p269
sg20
I2
sg21
I2
sg22
I0
sg23
S'2znn_unbound.pdb'
p270
sg25
F0.0
sg26
I0
sg27
F0.42999999999999999
sg28
F4.1399999999999997
sg29
I12
sg30
F3.7000000000000002
sg31
I0
sg32
F0.35999999999999999
sg33
F0.17999999999999999
sg34
I2
sg35
I0
sg36
I2
sg37
F0.71999999999999997
sg38
I2
sg39
F12.94
sg40
I1
sg41
I2
sg42
F0.53000000000000003
sg43
F0.42999999999999999
sg44
F234.52000000000001
sg45
F0.0
sg46
F0.0
sg47
I1
sg48
I0
sg49
I1
sg50
I0
sg51
I1
sg52
I0
sg53
F35.590000000000003
sg54
I3
sg55
I0
sg56
F-1.25
sg57
F1063.6099999999999
sg58
F5.8099999999999996
sg59
F150.71000000000001
sg60
I0
sba(iPocket
Pocket
p271
(dp272
g5
F0.55000000000000004
sg6
F0.63
sg7
F0.67000000000000004
sg8
I0
sg9
F0.80000000000000004
sg10
I86
sg11
F40.43
sg12
I2
sg13
F38.039999999999999
sg14
F1032.21
sg15
F27.460000000000001
sg16
F416.63
sg17
I0
sg18
S'PEP'
p273
sg20
I2
sg21
I1
sg22
I0
sg23
S'2znn_unbound.pdb'
p274
sg25
F0.0
sg26
I1
sg27
F0.52000000000000002
sg28
F4.2300000000000004
sg29
I8
sg30
F4.1699999999999999
sg31
I1
sg32
F0.10000000000000001
sg33
F0.46000000000000002
sg34
I1
sg35
I0
sg36
I0
sg37
F0.40999999999999998
sg38
I0
sg39
F14.470000000000001
sg40
I2
sg41
I1
sg42
F0.57999999999999996
sg43
F0.52000000000000002
sg44
F265.68000000000001
sg45
F0.0
sg46
F0.0
sg47
I0
sg48
I0
sg49
I2
sg50
I1
sg51
I1
sg52
I0
sg53
F33.539999999999999
sg54
I0
sg55
I0
sg56
F-1.25
sg57
F1063.6099999999999
sg58
F5.4900000000000002
sg59
F150.96000000000001
sg60
I0
sba(iPocket
Pocket
p275
(dp276
g5
F1.0
sg6
F1.0
sg7
F1.0
sg8
I0
sg9
F1.0
sg10
I209
sg11
F22.640000000000001
sg12
I7
sg13
F68.739999999999995
sg14
F1246.79
sg15
F18.23
sg16
F713.53999999999996
sg17
I4
sg18
S'PEP'
p277
sg20
I1
sg21
I0
sg22
I1
sg23
S'2znn_unbound.pdb'
p278
sg25
F0.0
sg26
I1
sg27
F0.82999999999999996
sg28
F4.1100000000000003
sg29
I12
sg30
F3.8300000000000001
sg31
I0
sg32
F0.91000000000000003
sg33
F0.22
sg34
I3
sg35
I0
sg36
I1
sg37
F1.0
sg38
I2
sg39
F18.27
sg40
I1
sg41
I3
sg42
F0.47999999999999998
sg43
F0.82999999999999996
sg44
F619.97000000000003
sg45
F0.0
sg46
F0.0
sg47
I5
sg48
I0
sg49
I1
sg50
I1
sg51
I2
sg52
I0
sg53
F43.890000000000001
sg54
I3
sg55
I3
sg56
F-1.25
sg57
F1063.6099999999999
sg58
F8.6699999999999999
sg59
F93.569999999999993
sg60
I0
sbasS'1ugm'
p279
(lp280
(iPocket
Pocket
p281
(dp282
g5
F0.93000000000000005
sg6
F0.68999999999999995
sg7
F0.20000000000000001
sg8
I0
sg9
F0.60999999999999999
sg10
I38
sg11
F22.219999999999999
sg12
I3
sg13
F28.300000000000001
sg14
F283.13999999999999
sg15
F1.23
sg16
F175.41
sg17
I1
sg18
S'PEP'
p283
sg20
I0
sg21
I0
sg22
I1
sg23
S'1ugm_unbound.pdb'
p284
sg25
F24.420000000000002
sg26
I0
sg27
F0.87
sg28
F3.73
sg29
I2
sg30
F3.4900000000000002
sg31
I0
sg32
F0.54000000000000004
sg33
F0.17999999999999999
sg34
I0
sg35
I1
sg36
I0
sg37
F0.48999999999999999
sg38
I0
sg39
F8.6699999999999999
sg40
I1
sg41
I1
sg42
F0.46000000000000002
sg43
F0.87
sg44
F101.44
sg45
F0.73999999999999999
sg46
F1.0
sg47
I3
sg48
I1
sg49
I1
sg50
I0
sg51
I0
sg52
I1
sg53
F43.549999999999997
sg54
I0
sg55
I0
sg56
F1.6699999999999999
sg57
F769.35000000000002
sg58
F4.1500000000000004
sg59
F73.969999999999999
sg60
I0
sba(iPocket
Pocket
p285
(dp286
g5
F0.73999999999999999
sg6
F0.59999999999999998
sg7
F1.0
sg8
I0
sg9
F0.68000000000000005
sg10
I60
sg11
F38.240000000000002
sg12
I0
sg13
F22.420000000000002
sg14
F563.48000000000002
sg15
F17.329999999999998
sg16
F208.37
sg17
I0
sg18
S'PEP'
p287
sg20
I3
sg21
I0
sg22
I0
sg23
S'1ugm_unbound.pdb'
p288
sg25
F0.0
sg26
I1
sg27
F0.40000000000000002
sg28
F4.4199999999999999
sg29
I10
sg30
F3.8999999999999999
sg31
I0
sg32
F0.38
sg33
F0.29999999999999999
sg34
I0
sg35
I0
sg36
I1
sg37
F0.79000000000000004
sg38
I2
sg39
F9.8699999999999992
sg40
I-3
sg41
I3
sg42
F0.53000000000000003
sg43
F0.40000000000000002
sg44
F106.27
sg45
F0.0
sg46
F0.0
sg47
I0
sg48
I0
sg49
I0
sg50
I0
sg51
I0
sg52
I0
sg53
F28.5
sg54
I2
sg55
I0
sg56
F-1.25
sg57
F769.35000000000002
sg58
F3.6699999999999999
sg59
F102.09999999999999
sg60
I0
sba(iPocket
Pocket
p289
(dp290
g5
F0.23000000000000001
sg6
F0.58999999999999997
sg7
F0.69999999999999996
sg8
I0
sg9
F0.57999999999999996
sg10
I44
sg11
F51.719999999999999
sg12
I1
sg13
F7.0
sg14
F342.05000000000001
sg15
F8.5800000000000001
sg16
F229.46000000000001
sg17
I0
sg18
S'PEP'
p291
sg20
I0
sg21
I0
sg22
I2
sg23
S'1ugm_unbound.pdb'
p292
sg25
F4.6500000000000004
sg26
I0
sg27
F0.17999999999999999
sg28
F3.75
sg29
I7
sg30
F4.0
sg31
I1
sg32
F0.02
sg33
F0.40999999999999998
sg34
I1
sg35
I0
sg36
I1
sg37
F0.56999999999999995
sg38
I1
sg39
F8.1999999999999993
sg40
I2
sg41
I1
sg42
F0.53000000000000003
sg43
F0.17999999999999999
sg44
F108.69
sg45
F0.0
sg46
F0.0
sg47
I1
sg48
I0
sg49
I3
sg50
I0
sg51
I0
sg52
I0
sg53
F11.17
sg54
I0
sg55
I0
sg56
F-1.25
sg57
F769.35000000000002
sg58
F3.5699999999999998
sg59
F120.78
sg60
I0
sba(iPocket
Pocket
p293
(dp294
g5
F0.41999999999999998
sg6
F0.58999999999999997
sg7
F0.20000000000000001
sg8
I0
sg9
F0.58999999999999997
sg10
I36
sg11
F47.619999999999997
sg12
I1
sg13
F12.859999999999999
sg14
F630.75
sg15
F21.609999999999999
sg16
F239.69
sg17
I0
sg18
S'PEP'
p295
sg20
I1
sg21
I1
sg22
I0
sg23
S'1ugm_unbound.pdb'
p296
sg25
F0.0
sg26
I0
sg27
F0.39000000000000001
sg28
F4.71
sg29
I2
sg30
F4.4000000000000004
sg31
I0
sg32
F0.17000000000000001
sg33
F0.78000000000000003
sg34
I0
sg35
I0
sg36
I0
sg37
F0.46999999999999997
sg38
I0
sg39
F8.3599999999999994
sg40
I1
sg41
I0
sg42
F0.56000000000000005
sg43
F0.39000000000000001
sg44
F106.27
sg45
F0.0
sg46
F0.0
sg47
I0
sg48
I0
sg49
I0
sg50
I3
sg51
I1
sg52
I0
sg53
F58.859999999999999
sg54
I0
sg55
I0
sg56
F-1.25
sg57
F769.35000000000002
sg58
F3.6099999999999999
sg59
F133.41
sg60
I0
sba(iPocket
Pocket
p297
(dp298
g5
F0.51000000000000001
sg6
F0.70999999999999996
sg7
F0.59999999999999998
sg8
I0
sg9
F0.66000000000000003
sg10
I45
sg11
F38.710000000000001
sg12
I0
sg13
F15.44
sg14
F574.10000000000002
sg15
F9.2200000000000006
sg16
F252.41
sg17
I0
sg18
S'PEP'
p299
sg20
I1
sg21
I0
sg22
I1
sg23
S'1ugm_unbound.pdb'
p300
sg25
F0.0
sg26
I1
sg27
F0.40000000000000002
sg28
F3.5800000000000001
sg29
I6
sg30
F3.8599999999999999
sg31
I1
sg32
F0.029999999999999999
sg33
F0.14000000000000001
sg34
I1
sg35
I0
sg36
I0
sg37
F0.58999999999999997
sg38
I1
sg39
F9.5800000000000001
sg40
I-1
sg41
I1
sg42
F0.5
sg43
F0.40000000000000002
sg44
F117.14
sg45
F0.0
sg46
F0.0
sg47
I2
sg48
I0
sg49
I1
sg50
I0
sg51
I0
sg52
I2
sg53
F13.67
sg54
I0
sg55
I0
sg56
F-1.25
sg57
F769.35000000000002
sg58
F4.29
sg59
F135.27000000000001
sg60
I0
sba(iPocket
Pocket
p301
(dp302
g5
F1.0
sg6
F1.0
sg7
F0.40000000000000002
sg8
I0
sg9
F1.0
sg10
I76
sg11
F34.149999999999999
sg12
I2
sg13
F30.289999999999999
sg14
F655.02999999999997
sg15
F17.43
sg16
F397.49000000000001
sg17
I2
sg18
S'PEP'
p303
sg20
I1
sg21
I0
sg22
I0
sg23
S'1ugm_unbound.pdb'
p304
sg25
F0.0
sg26
I0
sg27
F0.55000000000000004
sg28
F4.21
sg29
I4
sg30
F3.8500000000000001
sg31
I0
sg32
F0.88
sg33
F0.56999999999999995
sg34
I2
sg35
I0
sg36
I0
sg37
F1.0
sg38
I1
sg39
F14.960000000000001
sg40
I-1
sg41
I2
sg42
F0.46000000000000002
sg43
F0.55000000000000004
sg44
F230.66
sg45
F0.0
sg46
F0.0
sg47
I1
sg48
I0
sg49
I0
sg50
I1
sg51
I1
sg52
I0
sg53
F58.57
sg54
I1
sg55
I0
sg56
F-1.25
sg57
F769.35000000000002
sg58
F5.9500000000000002
sg59
F166.83000000000001
sg60
I0
sbasS'1alv'
p305
(lp306
(iPocket
Pocket
p307
(dp308
g5
F0.45000000000000001
sg6
F0.40000000000000002
sg7
F0.20000000000000001
sg8
I0
sg9
F0.54000000000000004
sg10
I38
sg11
F38.100000000000001
sg12
I3
sg13
F14.0
sg14
F404.23000000000002
sg15
F26.899999999999999
sg16
F160.41999999999999
sg17
I1
sg18
S'PEP'
p309
sg20
I0
sg21
I1
sg22
I0
sg23
S'1alv_unbound.pdb'
p310
sg25
F0.0
sg26
I1
sg27
F0.39000000000000001
sg28
F4.3799999999999999
sg29
I2
sg30
F3.6899999999999999
sg31
I0
sg32
F0.089999999999999997
sg33
F0.22
sg34
I0
sg35
I0
sg36
I0
sg37
F0.23999999999999999
sg38
I0
sg39
F7.8799999999999999
sg40
I0
sg41
I0
sg42
F0.56999999999999995
sg43
F0.39000000000000001
sg44
F71.25
sg45
F0.0
sg46
F0.0
sg47
I1
sg48
I0
sg49
I0
sg50
I1
sg51
I0
sg52
I0
sg53
F49.0
sg54
I0
sg55
I0
sg56
F-1.25
sg57
F1828.55
sg58
F2.7400000000000002
sg59
F89.170000000000002
sg60
I0
sba(iPocket
Pocket
p311
(dp312
g5
F0.25
sg6
F0.57999999999999996
sg7
F0.69999999999999996
sg8
I1
sg9
F0.58999999999999997
sg10
I57
sg11
F44.439999999999998
sg12
I0
sg13
F7.7800000000000002
sg14
F285.31999999999999
sg15
F17.579999999999998
sg16
F168.44999999999999
sg17
I0
sg18
S'PEP'
p313
sg20
I2
sg21
I0
sg22
I3
sg23
S'1alv_unbound.pdb'
p314
sg25
F0.0
sg26
I0
sg27
F0.16
sg28
F3.2000000000000002
sg29
I7
sg30
F3.46
sg31
I1
sg32
F0.02
sg33
F0.13
sg34
I2
sg35
I0
sg36
I1
sg37
F0.35999999999999999
sg38
I0
sg39
F8.6999999999999993
sg40
I1
sg41
I1
sg42
F0.40999999999999998
sg43
F0.16
sg44
F54.340000000000003
sg45
F0.0
sg46
F0.0
sg47
I1
sg48
I0
sg49
I1
sg50
I0
sg51
I2
sg52
I0
sg53
F11.07
sg54
I0
sg55
I0
sg56
F-1.25
sg57
F1828.55
sg58
F3.9900000000000002
sg59
F114.11
sg60
I0
sba(iPocket
Pocket
p315
(dp316
g5
F0.13
sg6
F0.64000000000000001
sg7
F1.0
sg8
I0
sg9
F0.80000000000000004
sg10
I44
sg11
F66.670000000000002
sg12
I0
sg13
F4.0
sg14
F273.16000000000003
sg15
F15.859999999999999
sg16
F180.84
sg17
I0
sg18
S'PEP'
p317
sg20
I1
sg21
I2
sg22
I1
sg23
S'1alv_unbound.pdb'
p318
sg25
F0.0
sg26
I0
sg27
F0.11
sg28
F3.5800000000000001
sg29
I10
sg30
F3.4500000000000002
sg31
I4
sg32
F0.02
sg33
F0.26000000000000001
sg34
I1
sg35
I0
sg36
I1
sg37
F0.27000000000000002
sg38
I1
sg39
F12.17
sg40
I2
sg41
I0
sg42
F0.44
sg43
F0.11
sg44
F57.969999999999999
sg45
F0.0
sg46
F0.0
sg47
I0
sg48
I0
sg49
I1
sg50
I0
sg51
I0
sg52
I0
sg53
F-13.92
sg54
I0
sg55
I0
sg56
F-1.25
sg57
F1828.55
sg58
F4.3899999999999997
sg59
F122.88
sg60
I0
sba(iPocket
Pocket
p319
(dp320
g5
F0.14999999999999999
sg6
F0.58999999999999997
sg7
F0.90000000000000002
sg8
I0
sg9
F0.63
sg10
I50
sg11
F53.119999999999997
sg12
I0
sg13
F4.6699999999999999
sg14
F255.25
sg15
F15.93
sg16
F193.18000000000001
sg17
I0
sg18
S'PEP'
p321
sg20
I1
sg21
I2
sg22
I1
sg23
S'1alv_unbound.pdb'
p322
sg25
F0.0
sg26
I0
sg27
F0.12
sg28
F3.6400000000000001
sg29
I9
sg30
F3.5099999999999998
sg31
I3
sg32
F0.02
sg33
F0.17000000000000001
sg34
I1
sg35
I0
sg36
I2
sg37
F0.31
sg38
I0
sg39
F9.3100000000000005
sg40
I3
sg41
I0
sg42
F0.48999999999999999
sg43
F0.12
sg44
F68.829999999999998
sg45
F0.0
sg46
F0.0
sg47
I0
sg48
I0
sg49
I1
sg50
I0
sg51
I0
sg52
I0
sg53
F-6.4500000000000002
sg54
I0
sg55
I0
sg56
F-1.25
sg57
F1828.55
sg58
F3.9900000000000002
sg59
F124.34999999999999
sg60
I0
sba(iPocket
Pocket
p323
(dp324
g5
F0.17999999999999999
sg6
F0.56000000000000005
sg7
F0.80000000000000004
sg8
I1
sg9
F0.62
sg10
I68
sg11
F44.439999999999998
sg12
I0
sg13
F5.71
sg14
F350.30000000000001
sg15
F17.93
sg16
F220.43000000000001
sg17
I0
sg18
S'PEP'
p325
sg20
I2
sg21
I0
sg22
I3
sg23
S'1alv_unbound.pdb'
p326
sg25
F0.0
sg26
I0
sg27
F0.10000000000000001
sg28
F3.1299999999999999
sg29
I8
sg30
F3.8199999999999998
sg31
I1
sg32
F0.02
sg33
F0.25
sg34
I1
sg35
I0
sg36
I1
sg37
F0.42999999999999999
sg38
I1
sg39
F9.2400000000000002
sg40
I0
sg41
I1
sg42
F0.48999999999999999
sg43
F0.10000000000000001
sg44
F85.739999999999995
sg45
F0.0
sg46
F0.0
sg47
I1
sg48
I0
sg49
I1
sg50
I0
sg51
I2
sg52
I0
sg53
F2.3300000000000001
sg54
I0
sg55
I0
sg56
F-1.25
sg57
F1828.55
sg58
F3.8300000000000001
sg59
F134.68000000000001
sg60
I0
sba(iPocket
Pocket
p327
(dp328
g5
F0.029999999999999999
sg6
F0.53000000000000003
sg7
F0.40000000000000002
sg8
I0
sg9
F0.63
sg10
I39
sg11
F50.0
sg12
I1
sg13
F1.0
sg14
F624.79999999999995
sg15
F22.25
sg16
F268.23000000000002
sg17
I0
sg18
S'PEP'
p329
sg20
I2
sg21
I0
sg22
I1
sg23
S'1alv_unbound.pdb'
p330
sg25
F0.0
sg26
I0
sg27
F0.050000000000000003
sg28
F3.3999999999999999
sg29
I4
sg30
F4.4299999999999997
sg31
I1
sg32
F0.029999999999999999
sg33
F0.14999999999999999
sg34
I0
sg35
I0
sg36
I0
sg37
F0.23999999999999999
sg38
I0
sg39
F9.3000000000000007
sg40
I0
sg41
I1
sg42
F0.55000000000000004
sg43
F0.050000000000000003
sg44
F130.41999999999999
sg45
F0.0
sg46
F0.0
sg47
I0
sg48
I0
sg49
I0
sg50
I0
sg51
I3
sg52
I0
sg53
F33.200000000000003
sg54
I1
sg55
I0
sg56
F-1.25
sg57
F1828.55
sg58
F3.6299999999999999
sg59
F137.81
sg60
I0
sba(iPocket
Pocket
p331
(dp332
g5
F0.60999999999999999
sg6
F0.42999999999999999
sg7
F0.29999999999999999
sg8
I0
sg9
F0.55000000000000004
sg10
I36
sg11
F37.5
sg12
I2
sg13
F19.0
sg14
F620.37
sg15
F2.3999999999999999
sg16
F278.86000000000001
sg17
I0
sg18
S'PEP'
p333
sg20
I0
sg21
I1
sg22
I1
sg23
S'1alv_unbound.pdb'
p334
sg25
F21.940000000000001
sg26
I0
sg27
F0.56000000000000005
sg28
F4.1200000000000001
sg29
I3
sg30
F4.3799999999999999
sg31
I0
sg32
F0.029999999999999999
sg33
F0.27000000000000002
sg34
I0
sg35
I1
sg36
I0
sg37
F0.22
sg38
I1
sg39
F8.0500000000000007
sg40
I1
sg41
I0
sg42
F0.59999999999999998
sg43
F0.56000000000000005
sg44
F149.75
sg45
F0.68999999999999995
sg46
F1.0
sg47
I1
sg48
I1
sg49
I1
sg50
I1
sg51
I0
sg52
I0
sg53
F22.75
sg54
I0
sg55
I0
sg56
F1.6200000000000001
sg57
F1828.55
sg58
F2.9700000000000002
sg59
F129.12
sg60
I0
sba(iPocket
Pocket
p335
(dp336
g5
F0.57999999999999996
sg6
F0.53000000000000003
sg7
F0.59999999999999998
sg8
I0
sg9
F0.67000000000000004
sg10
I36
sg11
F34.780000000000001
sg12
I0
sg13
F18.0
sg14
F425.26999999999998
sg15
F7.7000000000000002
sg16
F287.32999999999998
sg17
I2
sg18
S'PEP'
p337
sg20
I0
sg21
I1
sg22
I0
sg23
S'1alv_unbound.pdb'
p338
sg25
F8.6699999999999999
sg26
I0
sg27
F0.53000000000000003
sg28
F4.75
sg29
I6
sg30
F3.9500000000000002
sg31
I0
sg32
F0.059999999999999998
sg33
F0.52000000000000002
sg34
I0
sg35
I0
sg36
I0
sg37
F0.22
sg38
I1
sg39
F10.0
sg40
I2
sg41
I1
sg42
F0.5
sg43
F0.53000000000000003
sg44
F163.03
sg45
F0.080000000000000002
sg46
F0.38
sg47
I0
sg48
I0
sg49
I2
sg50
I0
sg51
I0
sg52
I0
sg53
F24.5
sg54
I0
sg55
I0
sg56
F-0.40000000000000002
sg57
F1828.55
sg58
F3.6099999999999999
sg59
F124.3
sg60
I1
sba(iPocket
Pocket
p339
(dp340
g5
F0.27000000000000002
sg6
F1.0
sg7
F0.90000000000000002
sg8
I0
sg9
F1.0
sg10
I158
sg11
F49.369999999999997
sg12
I0
sg13
F8.4299999999999997
sg14
F621.39999999999998
sg15
F18.93
sg16
F287.58999999999997
sg17
I0
sg18
S'PEP'
p341
sg20
I3
sg21
I1
sg22
I2
sg23
S'1alv_unbound.pdb'
p342
sg25
F0.0
sg26
I0
sg27
F0.17999999999999999
sg28
F4.0
sg29
I9
sg30
F3.5299999999999998
sg31
I2
sg32
F0.040000000000000001
sg33
F0.089999999999999997
sg34
I1
sg35
I0
sg36
I1
sg37
F1.0
sg38
I0
sg39
F15.44
sg40
I1
sg41
I2
sg42
F0.46999999999999997
sg43
F0.17999999999999999
sg44
F85.739999999999995
sg45
F0.0
sg46
F0.0
sg47
I0
sg48
I0
sg49
I0
sg50
I0
sg51
I0
sg52
I0
sg53
F14.92
sg54
I1
sg55
I0
sg56
F-1.25
sg57
F1828.55
sg58
F6.7400000000000002
sg59
F201.84999999999999
sg60
I0
sba(iPocket
Pocket
p343
(dp344
g5
F1.0
sg6
F0.82999999999999996
sg7
F0.80000000000000004
sg8
I0
sg9
F0.91000000000000003
sg10
I97
sg11
F44.899999999999999
sg12
I2
sg13
F31.219999999999999
sg14
F876.72000000000003
sg15
F25.800000000000001
sg16
F463.83999999999997
sg17
I0
sg18
S'PEP'
p345
sg20
I3
sg21
I0
sg22
I1
sg23
S'1alv_unbound.pdb'
p346
sg25
F0.0
sg26
I0
sg27
F0.37
sg28
F3.9399999999999999
sg29
I8
sg30
F4.3099999999999996
sg31
I1
sg32
F0.83999999999999997
sg33
F0.19
sg34
I1
sg35
I0
sg36
I1
sg37
F0.60999999999999999
sg38
I1
sg39
F14.01
sg40
I-1
sg41
I2
sg42
F0.57999999999999996
sg43
F0.37
sg44
F217.37
sg45
F0.0
sg46
F0.0
sg47
I0
sg48
I0
sg49
I0
sg50
I2
sg51
I3
sg52
I0
sg53
F42.060000000000002
sg54
I1
sg55
I0
sg56
F-1.25
sg57
F1828.55
sg58
F5.5899999999999999
sg59
F246.47
sg60
I0
sbasS'2ds5'
p347
(lp348
(iPocket
Pocket
p349
(dp350
g5
F0.35999999999999999
sg6
F0.56000000000000005
sg7
F0.67000000000000004
sg8
I0
sg9
F0.71999999999999997
sg10
I38
sg11
F50.0
sg12
I0
sg13
F8.0
sg14
F428.76999999999998
sg15
F11.56
sg16
F185.5
sg17
I0
sg18
S'PEP'
p351
sg20
I0
sg21
I1
sg22
I2
sg23
S'2ds5_unbound.pdb'
p352
sg25
F0.0
sg26
I0
sg27
F0.23999999999999999
sg28
F3.8599999999999999
sg29
I4
sg30
F4.0999999999999996
sg31
I2
sg32
F0.01
sg33
F0.47999999999999998
sg34
I0
sg35
I0
sg36
I0
sg37
F1.0
sg38
I0
sg39
F6.5099999999999998
sg40
I1
sg41
I1
sg42
F0.60999999999999999
sg43
F0.23999999999999999
sg44
F77.290000000000006
sg45
F0.0
sg46
F0.0
sg47
I1
sg48
I0
sg49
I0
sg50
I0
sg51
I0
sg52
I0
sg53
F-10.57
sg54
I0
sg55
I0
sg56
F-1.25
sg57
F1234.54
sg58
F2.77
sg59
F108.20999999999999
sg60
I0
sbasS'1n7e'
p353
(lp354
(iPocket
Pocket
p355
(dp356
g5
F0.27000000000000002
sg6
F0.83999999999999997
sg7
F0.80000000000000004
sg8
I3
sg9
F0.78000000000000003
sg10
I52
sg11
F44.439999999999998
sg12
I1
sg13
F6.0
sg14
F778.98000000000002
sg15
F6.9800000000000004
sg16
F268.57999999999998
sg17
I0
sg18
S'PEP'
p357
sg20
I0
sg21
I0
sg22
I1
sg23
S'1n7e_unbound.pdb'
p358
sg25
F9.5199999999999996
sg26
I0
sg27
F0.13
sg28
F4.25
sg29
I4
sg30
F4.4900000000000002
sg31
I0
sg32
F0.029999999999999999
sg33
F0.41999999999999998
sg34
I0
sg35
I0
sg36
I0
sg37
F0.83999999999999997
sg38
I1
sg39
F8.5
sg40
I-1
sg41
I0
sg42
F0.65000000000000002
sg43
F0.13
sg44
F149.75
sg45
F0.0
sg46
F0.0
sg47
I0
sg48
I0
sg49
I0
sg50
I1
sg51
I0
sg52
I1
sg53
F17.75
sg54
I0
sg55
I0
sg56
F-1.25
sg57
F662.61000000000001
sg58
F4.0
sg59
F118.83
sg60
I0
sba(iPocket
Pocket
p359
(dp360
g5
F0.93999999999999995
sg6
F0.89000000000000001
sg7
F1.0
sg8
I1
sg9
F0.93000000000000005
sg10
I62
sg11
F36.359999999999999
sg12
I2
sg13
F20.640000000000001
sg14
F534.83000000000004
sg15
F15.15
sg16
F271.57999999999998
sg17
I1
sg18
S'PEP'
p361
sg20
I1
sg21
I0
sg22
I1
sg23
S'1n7e_unbound.pdb'
p362
sg25
F0.0
sg26
I0
sg27
F0.34999999999999998
sg28
F3.3599999999999999
sg29
I5
sg30
F3.9100000000000001
sg31
I1
sg32
F0.68000000000000005
sg33
F0.19
sg34
I0
sg35
I0
sg36
I0
sg37
F1.0
sg38
I0
sg39
F10.33
sg40
I2
sg41
I0
sg42
F0.53000000000000003
sg43
F0.34999999999999998
sg44
F144.91999999999999
sg45
F0.0
sg46
F0.0
sg47
I2
sg48
I0
sg49
I2
sg50
I0
sg51
I1
sg52
I2
sg53
F25.93
sg54
I0
sg55
I0
sg56
F-1.25
sg57
F662.61000000000001
sg58
F4.2400000000000002
sg59
F126.67
sg60
I0
sba(iPocket
Pocket
p363
(dp364
g5
F1.0
sg6
F0.79000000000000004
sg7
F0.20000000000000001
sg8
I0
sg9
F0.68000000000000005
sg10
I40
sg11
F32.140000000000001
sg12
I2
sg13
F22.0
sg14
F604.05999999999995
sg15
F2.0600000000000001
sg16
F296.29000000000002
sg17
I0
sg18
S'PEP'
p365
sg20
I0
sg21
I0
sg22
I1
sg23
S'1n7e_unbound.pdb'
p366
sg25
F44.439999999999998
sg26
I0
sg27
F0.56999999999999995
sg28
F3.3300000000000001
sg29
I1
sg30
F4.6100000000000003
sg31
I0
sg32
F0.52000000000000002
sg33
F0.17000000000000001
sg34
I0
sg35
I1
sg36
I1
sg37
F0.64000000000000001
sg38
I0
sg39
F7.3499999999999996
sg40
I0
sg41
I0
sg42
F0.67000000000000004
sg43
F0.56999999999999995
sg44
F199.25999999999999
sg45
F1.0
sg46
F1.0
sg47
I3
sg48
I1
sg49
I0
sg50
I1
sg51
I0
sg52
I1
sg53
F37.670000000000002
sg54
I0
sg55
I0
sg56
F2.0
sg57
F662.61000000000001
sg58
F3.75
sg59
F97.030000000000001
sg60
I0
sba(iPocket
Pocket
p367
(dp368
g5
F0.20999999999999999
sg6
F1.0
sg7
F0.80000000000000004
sg8
I1
sg9
F1.0
sg10
I46
sg11
F44.439999999999998
sg12
I0
sg13
F4.5700000000000003
sg14
F770.37
sg15
F13.800000000000001
sg16
F329.81999999999999
sg17
I0
sg18
S'PEP'
p369
sg20
I0
sg21
I0
sg22
I1
sg23
S'1n7e_unbound.pdb'
p370
sg25
F0.0
sg26
I0
sg27
F0.14999999999999999
sg28
F3.5600000000000001
sg29
I4
sg30
F4.0
sg31
I0
sg32
F0.029999999999999999
sg33
F0.28000000000000003
sg34
I0
sg35
I0
sg36
I1
sg37
F0.73999999999999999
sg38
I0
sg39
F11.23
sg40
I2
sg41
I0
sg42
F0.48999999999999999
sg43
F0.14999999999999999
sg44
F171.47999999999999
sg45
F0.0
sg46
F0.0
sg47
I1
sg48
I0
sg49
I2
sg50
I1
sg51
I1
sg52
I1
sg53
F20.890000000000001
sg54
I0
sg55
I0
sg56
F-1.25
sg57
F662.61000000000001
sg58
F4.7800000000000002
sg59
F158.34
sg60
I0
sbasS'1t4e'
p371
(lp372
(iPocket
Pocket
p373
(dp374
g5
F0.70999999999999996
sg6
F0.58999999999999997
sg7
F0.33000000000000002
sg8
I0
sg9
F0.65000000000000002
sg10
I37
sg11
F21.739999999999998
sg12
I0
sg13
F31.640000000000001
sg14
F533.59000000000003
sg15
F10.210000000000001
sg16
F198.49000000000001
sg17
I1
sg18
S'PEP'
p375
sg20
I0
sg21
I0
sg22
I0
sg23
S'1t4e_unbound.pdb'
p376
sg25
F2.2200000000000002
sg26
I0
sg27
F0.89000000000000001
sg28
F3.5
sg29
I2
sg30
F4.25
sg31
I0
sg32
F0.059999999999999998
sg33
F0.11
sg34
I1
sg35
I0
sg36
I0
sg37
F0.38
sg38
I1
sg39
F8.6400000000000006
sg40
I0
sg41
I0
sg42
F0.68000000000000005
sg43
F0.89000000000000001
sg44
F144.91999999999999
sg45
F0.0
sg46
F0.0
sg47
I0
sg48
I0
sg49
I1
sg50
I0
sg51
I0
sg52
I0
sg53
F19.5
sg54
I0
sg55
I0
sg56
F-1.25
sg57
F905.13
sg58
F3.27
sg59
F53.57
sg60
I0
sba(iPocket
Pocket
p377
(dp378
g5
F0.41999999999999998
sg6
F0.70999999999999996
sg7
F1.0
sg8
I0
sg9
F0.67000000000000004
sg10
I38
sg11
F48.0
sg12
I0
sg13
F18.899999999999999
sg14
F632.11000000000001
sg15
F9.6099999999999994
sg16
F246.93000000000001
sg17
I1
sg18
S'PEP'
p379
sg20
I2
sg21
I0
sg22
I1
sg23
S'1t4e_unbound.pdb'
p380
sg25
F0.0
sg26
I0
sg27
F0.53000000000000003
sg28
F3.3999999999999999
sg29
I6
sg30
F3.9399999999999999
sg31
I0
sg32
F0.059999999999999998
sg33
F0.17000000000000001
sg34
I0
sg35
I0
sg36
I1
sg37
F0.39000000000000001
sg38
I1
sg39
F8.9800000000000004
sg40
I0
sg41
I1
sg42
F0.56000000000000005
sg43
F0.53000000000000003
sg44
F118.17
sg45
F0.0
sg46
F0.0
sg47
I1
sg48
I0
sg49
I1
sg50
I0
sg51
I0
sg52
I0
sg53
F15.300000000000001
sg54
I1
sg55
I0
sg56
F-1.25
sg57
F905.13
sg58
F3.9300000000000002
sg59
F128.75999999999999
sg60
I0
sba(iPocket
Pocket
p381
(dp382
g5
F1.0
sg6
F1.0
sg7
F1.0
sg8
I2
sg9
F1.0
sg10
I97
sg11
F23.530000000000001
sg12
I3
sg13
F44.689999999999998
sg14
F848.72000000000003
sg15
F1.8300000000000001
sg16
F319.31999999999999
sg17
I3
sg18
S'PEP'
p383
sg20
I1
sg21
I0
sg22
I0
sg23
S'1t4e_unbound.pdb'
p384
sg25
F48.890000000000001
sg26
I1
sg27
F0.59999999999999998
sg28
F3.5899999999999999
sg29
I6
sg30
F3.9900000000000002
sg31
I0
sg32
F0.87
sg33
F0.23999999999999999
sg34
I2
sg35
I1
sg36
I0
sg37
F1.0
sg38
I0
sg39
F13.92
sg40
I0
sg41
I1
sg42
F0.54000000000000004
sg43
F0.59999999999999998
sg44
F233.06999999999999
sg45
F0.78000000000000003
sg46
F1.0
sg47
I3
sg48
I1
sg49
I1
sg50
I0
sg51
I0
sg52
I0
sg53
F37.939999999999998
sg54
I0
sg55
I0
sg56
F1.73
sg57
F905.13
sg58
F5.5300000000000002
sg59
F86.25
sg60
I0
sbasS'1ca4'
p385
(lp386
(iPocket
Pocket
p387
(dp388
g5
F0.17000000000000001
sg6
F0.55000000000000004
sg7
F0.64000000000000001
sg8
I1
sg9
F0.53000000000000003
sg10
I40
sg11
F57.689999999999998
sg12
I0
sg13
F6.0
sg14
F220.78999999999999
sg15
F50.909999999999997
sg16
F156.91
sg17
I1
sg18
S'PEP'
p389
sg20
I1
sg21
I0
sg22
I2
sg23
S'1ca4_unbound.pdb'
p390
sg25
F0.0
sg26
I0
sg27
F0.17000000000000001
sg28
F3.29
sg29
I7
sg30
F3.52
sg31
I4
sg32
F0.01
sg33
F0.23999999999999999
sg34
I0
sg35
I0
sg36
I0
sg37
F0.29999999999999999
sg38
I0
sg39
F10.210000000000001
sg40
I1
sg41
I0
sg42
F0.46999999999999997
sg43
F0.17000000000000001
sg44
F43.469999999999999
sg45
F0.0
sg46
F0.0
sg47
I0
sg48
I0
sg49
I1
sg50
I1
sg51
I2
sg52
I1
sg53
F6.71
sg54
I0
sg55
I0
sg56
F-1.25
sg57
F570.99000000000001
sg58
F4.21
sg59
F113.43000000000001
sg60
I0
sba(iPocket
Pocket
p391
(dp392
g5
F0.59999999999999998
sg6
F0.34999999999999998
sg7
F0.45000000000000001
sg8
I1
sg9
F0.38
sg10
I36
sg11
F31.82
sg12
I0
sg13
F20.91
sg14
F380.56999999999999
sg15
F50.340000000000003
sg16
F180.52000000000001
sg17
I2
sg18
S'PEP'
p393
sg20
I3
sg21
I0
sg22
I1
sg23
S'1ca4_unbound.pdb'
p394
sg25
F25.350000000000001
sg26
I0
sg27
F0.60999999999999999
sg28
F3.0
sg29
I5
sg30
F4.0499999999999998
sg31
I1
sg32
F0.02
sg33
F0.22
sg34
I0
sg35
I0
sg36
I0
sg37
F0.27000000000000002
sg38
I0
sg39
F6.9100000000000001
sg40
I0
sg41
I0
sg42
F0.64000000000000001
sg43
F0.60999999999999999
sg44
F97.819999999999993
sg45
F0.0
sg46
F0.0
sg47
I0
sg48
I0
sg49
I0
sg50
I0
sg51
I0
sg52
I1
sg53
F8.1099999999999994
sg54
I0
sg55
I0
sg56
F-1.25
sg57
F570.99000000000001
sg58
F2.6899999999999999
sg59
F82.700000000000003
sg60
I0
sba(iPocket
Pocket
p395
(dp396
g5
F0.57999999999999996
sg6
F0.64000000000000001
sg7
F0.72999999999999998
sg8
I1
sg9
F0.66000000000000003
sg10
I58
sg11
F34.289999999999999
sg12
I1
sg13
F20.289999999999999
sg14
F443.89999999999998
sg15
F49.960000000000001
sg16
F187.15000000000001
sg17
I2
sg18
S'PEP'
p397
sg20
I3
sg21
I0
sg22
I1
sg23
S'1ca4_unbound.pdb'
p398
sg25
F25.350000000000001
sg26
I0
sg27
F0.47999999999999998
sg28
F3.71
sg29
I8
sg30
F3.6400000000000001
sg31
I2
sg32
F0.059999999999999998
sg33
F0.19
sg34
I0
sg35
I0
sg36
I0
sg37
F0.44
sg38
I0
sg39
F12.890000000000001
sg40
I1
sg41
I1
sg42
F0.53000000000000003
sg43
F0.47999999999999998
sg44
F87.349999999999994
sg45
F0.0
sg46
F0.0
sg47
I0
sg48
I0
sg49
I0
sg50
I0
sg51
I1
sg52
I1
sg53
F19.140000000000001
sg54
I0
sg55
I1
sg56
F-1.25
sg57
F570.99000000000001
sg58
F4.9199999999999999
sg59
F99.799999999999997
sg60
I0
sba(iPocket
Pocket
p399
(dp400
g5
F0.51000000000000001
sg6
F0.39000000000000001
sg7
F0.35999999999999999
sg8
I0
sg9
F0.46000000000000002
sg10
I40
sg11
F36.359999999999999
sg12
I0
sg13
F18.0
sg14
F599.08000000000004
sg15
F35.380000000000003
sg16
F237.33000000000001
sg17
I1
sg18
S'PEP'
p401
sg20
I0
sg21
I0
sg22
I1
sg23
S'1ca4_unbound.pdb'
p402
sg25
F0.0
sg26
I0
sg27
F0.46999999999999997
sg28
F4.2199999999999998
sg29
I4
sg30
F4.3899999999999997
sg31
I1
sg32
F0.040000000000000001
sg33
F0.54000000000000004
sg34
I0
sg35
I0
sg36
I0
sg37
F0.29999999999999999
sg38
I1
sg39
F8.6899999999999995
sg40
I-1
sg41
I2
sg42
F0.63
sg43
F0.46999999999999997
sg44
F128.00999999999999
sg45
F0.0
sg46
F0.0
sg47
I0
sg48
I0
sg49
I0
sg50
I1
sg51
I2
sg52
I0
sg53
F32.890000000000001
sg54
I0
sg55
I0
sg56
F-1.25
sg57
F570.99000000000001
sg58
F3.0299999999999998
sg59
F109.31999999999999
sg60
I0
sba(iPocket
Pocket
p403
(dp404
g5
F0.059999999999999998
sg6
F0.44
sg7
F0.45000000000000001
sg8
I0
sg9
F0.52000000000000002
sg10
I39
sg11
F48.0
sg12
I2
sg13
F2.0
sg14
F609.88999999999999
sg15
F52.869999999999997
sg16
F273.94
sg17
I0
sg18
S'PEP'
p405
sg20
I0
sg21
I2
sg22
I1
sg23
S'1ca4_unbound.pdb'
p406
sg25
F0.0
sg26
I1
sg27
F0.080000000000000002
sg28
F4.7000000000000002
sg29
I5
sg30
F4.1900000000000004
sg31
I1
sg32
F0.02
sg33
F0.35999999999999999
sg34
I0
sg35
I0
sg36
I0
sg37
F0.28999999999999998
sg38
I0
sg39
F9.9399999999999995
sg40
I1
sg41
I0
sg42
F0.57999999999999996
sg43
F0.080000000000000002
sg44
F113.52
sg45
F0.0
sg46
F0.0
sg47
I0
sg48
I0
sg49
I0
sg50
I1
sg51
I1
sg52
I0
sg53
F25.100000000000001
sg54
I0
sg55
I0
sg56
F-1.25
sg57
F570.99000000000001
sg58
F3.3399999999999999
sg59
F160.41999999999999
sg60
I1
sba(iPocket
Pocket
p407
(dp408
g5
F0.91000000000000003
sg6
F0.63
sg7
F0.55000000000000004
sg8
I1
sg9
F0.57999999999999996
sg10
I85
sg11
F46.670000000000002
sg12
I1
sg13
F31.670000000000002
sg14
F770.28999999999996
sg15
F39.780000000000001
sg16
F336.62
sg17
I1
sg18
S'PEP'
p409
sg20
I1
sg21
I1
sg22
I1
sg23
S'1ca4_unbound.pdb'
p410
sg25
F0.0
sg26
I0
sg27
F0.41999999999999998
sg28
F3.8799999999999999
sg29
I6
sg30
F4.0099999999999998
sg31
I0
sg32
F0.41999999999999998
sg33
F0.17000000000000001
sg34
I3
sg35
I0
sg36
I0
sg37
F0.65000000000000002
sg38
I1
sg39
F11.24
sg40
I1
sg41
I0
sg42
F0.52000000000000002
sg43
F0.41999999999999998
sg44
F159.41
sg45
F0.0
sg46
F0.0
sg47
I1
sg48
I0
sg49
I1
sg50
I0
sg51
I1
sg52
I2
sg53
F31.059999999999999
sg54
I0
sg55
I0
sg56
F-1.25
sg57
F570.99000000000001
sg58
F4.8300000000000001
sg59
F177.21000000000001
sg60
I1
sba(iPocket
Pocket
p411
(dp412
g5
F0.23999999999999999
sg6
F0.67000000000000004
sg7
F0.55000000000000004
sg8
I1
sg9
F0.57999999999999996
sg10
I68
sg11
F51.43
sg12
I0
sg13
F8.3599999999999994
sg14
F865.86000000000001
sg15
F19.210000000000001
sg16
F342.27999999999997
sg17
I1
sg18
S'PEP'
p413
sg20
I0
sg21
I0
sg22
I2
sg23
S'1ca4_unbound.pdb'
p414
sg25
F0.0
sg26
I0
sg27
F0.16
sg28
F3.9300000000000002
sg29
I6
sg30
F4.1699999999999999
sg31
I2
sg32
F0.02
sg33
F0.23999999999999999
sg34
I0
sg35
I0
sg36
I0
sg37
F0.52000000000000002
sg38
I0
sg39
F11.1
sg40
I2
sg41
I1
sg42
F0.47999999999999998
sg43
F0.16
sg44
F137.66999999999999
sg45
F0.0
sg46
F0.0
sg47
I0
sg48
I0
sg49
I2
sg50
I1
sg51
I2
sg52
I2
sg53
F23.859999999999999
sg54
I0
sg55
I0
sg56
F-1.25
sg57
F570.99000000000001
sg58
F5.1600000000000001
sg59
F204.61000000000001
sg60
I0
sba(iPocket
Pocket
p415
(dp416
g5
F0.53000000000000003
sg6
F0.46999999999999997
sg7
F0.55000000000000004
sg8
I2
sg9
F0.42999999999999999
sg10
I47
sg11
F41.380000000000003
sg12
I3
sg13
F18.399999999999999
sg14
F711.77999999999997
sg15
F44.719999999999999
sg16
F343.75
sg17
I0
sg18
S'PEP'
p417
sg20
I1
sg21
I1
sg22
I1
sg23
S'1ca4_unbound.pdb'
p418
sg25
F0.0
sg26
I0
sg27
F0.42999999999999999
sg28
F3.8500000000000001
sg29
I6
sg30
F4.4199999999999999
sg31
I0
sg32
F0.050000000000000003
sg33
F0.26000000000000001
sg34
I2
sg35
I0
sg36
I1
sg37
F0.35999999999999999
sg38
I0
sg39
F7.9299999999999997
sg40
I2
sg41
I0
sg42
F0.55000000000000004
sg43
F0.42999999999999999
sg44
F135.25
sg45
F0.0
sg46
F0.0
sg47
I1
sg48
I0
sg49
I1
sg50
I0
sg51
I0
sg52
I0
sg53
F28.920000000000002
sg54
I0
sg55
I0
sg56
F-1.25
sg57
F570.99000000000001
sg58
F3.6400000000000001
sg59
F208.5
sg60
I0
sba(iPocket
Pocket
p419
(dp420
g5
F0.87
sg6
F0.67000000000000004
sg7
F0.64000000000000001
sg8
I1
sg9
F0.71999999999999997
sg10
I89
sg11
F46.810000000000002
sg12
I1
sg13
F30.32
sg14
F870.92999999999995
sg15
F24.100000000000001
sg16
F361.48000000000002
sg17
I1
sg18
S'PEP'
p421
sg20
I1
sg21
I1
sg22
I1
sg23
S'1ca4_unbound.pdb'
p422
sg25
F0.0
sg26
I0
sg27
F0.41999999999999998
sg28
F3.8799999999999999
sg29
I7
sg30
F4.04
sg31
I0
sg32
F0.39000000000000001
sg33
F0.16
sg34
I3
sg35
I0
sg36
I0
sg37
F0.68000000000000005
sg38
I1
sg39
F14.07
sg40
I2
sg41
I0
sg42
F0.5
sg43
F0.41999999999999998
sg44
F169.06999999999999
sg45
F0.0
sg46
F0.0
sg47
I1
sg48
I0
sg49
I2
sg50
I0
sg51
I1
sg52
I2
sg53
F29.710000000000001
sg54
I0
sg55
I0
sg56
F-1.25
sg57
F570.99000000000001
sg58
F5.1299999999999999
sg59
F192.41
sg60
I1
sba(iPocket
Pocket
p423
(dp424
g5
F0.70999999999999996
sg6
F0.70999999999999996
sg7
F0.72999999999999998
sg8
I1
sg9
F0.58999999999999997
sg10
I71
sg11
F35.899999999999999
sg12
I4
sg13
F24.809999999999999
sg14
F950.01999999999998
sg15
F25.170000000000002
sg16
F431.08999999999997
sg17
I0
sg18
S'PEP'
p425
sg20
I1
sg21
I3
sg22
I0
sg23
S'1ca4_unbound.pdb'
p426
sg25
F0.0
sg26
I1
sg27
F0.45000000000000001
sg28
F4.29
sg29
I8
sg30
F4.29
sg31
I1
sg32
F0.25
sg33
F0.26000000000000001
sg34
I1
sg35
I0
sg36
I0
sg37
F0.54000000000000004
sg38
I0
sg39
F11.369999999999999
sg40
I3
sg41
I0
sg42
F0.51000000000000001
sg43
F0.45000000000000001
sg44
F193.36000000000001
sg45
F0.0
sg46
F0.0
sg47
I1
sg48
I0
sg49
I1
sg50
I1
sg51
I1
sg52
I0
sg53
F33.82
sg54
I1
sg55
I0
sg56
F-1.25
sg57
F570.99000000000001
sg58
F5.4199999999999999
sg59
F237.72999999999999
sg60
I0
sba(iPocket
Pocket
p427
(dp428
g5
F0.91000000000000003
sg6
F0.76000000000000001
sg7
F0.27000000000000002
sg8
I0
sg9
F0.81999999999999995
sg10
I58
sg11
F25.0
sg12
I2
sg13
F31.73
sg14
F844.40999999999997
sg15
F28.98
sg16
F458.45999999999998
sg17
I0
sg18
S'PEP'
p429
sg20
I0
sg21
I0
sg22
I0
sg23
S'1ca4_unbound.pdb'
p430
sg25
F0.0
sg26
I0
sg27
F0.76000000000000001
sg28
F3.8599999999999999
sg29
I3
sg30
F4.1699999999999999
sg31
I1
sg32
F0.40999999999999998
sg33
F0.82999999999999996
sg34
I0
sg35
I0
sg36
I0
sg37
F0.44
sg38
I1
sg39
F16.210000000000001
sg40
I0
sg41
I0
sg42
F0.54000000000000004
sg43
F0.76000000000000001
sg44
F415.42000000000002
sg45
F0.0
sg46
F0.0
sg47
I0
sg48
I0
sg49
I1
sg50
I0
sg51
I1
sg52
I0
sg53
F37.289999999999999
sg54
I1
sg55
I0
sg56
F-1.25
sg57
F570.99000000000001
sg58
F5.8399999999999999
sg59
F43.039999999999999
sg60
I0
sba(iPocket
Pocket
p431
(dp432
g5
F0.57999999999999996
sg6
F0.79000000000000004
sg7
F0.72999999999999998
sg8
I1
sg9
F0.68000000000000005
sg10
I87
sg11
F33.329999999999998
sg12
I4
sg13
F20.440000000000001
sg14
F1086.4200000000001
sg15
F24.510000000000002
sg16
F475.76999999999998
sg17
I1
sg18
S'PEP'
p433
sg20
I1
sg21
I3
sg22
I1
sg23
S'1ca4_unbound.pdb'
p434
sg25
F0.0
sg26
I1
sg27
F0.40999999999999998
sg28
F4.1500000000000004
sg29
I8
sg30
F4.1399999999999997
sg31
I1
sg32
F0.12
sg33
F0.27000000000000002
sg34
I2
sg35
I0
sg36
I0
sg37
F0.67000000000000004
sg38
I0
sg39
F13.27
sg40
I3
sg41
I0
sg42
F0.5
sg43
F0.40999999999999998
sg44
F215.50999999999999
sg45
F0.0
sg46
F0.0
sg47
I1
sg48
I0
sg49
I1
sg50
I1
sg51
I1
sg52
I0
sg53
F32.700000000000003
sg54
I1
sg55
I0
sg56
F-1.25
sg57
F570.99000000000001
sg58
F6.0300000000000002
sg59
F260.25999999999999
sg60
I0
sba(iPocket
Pocket
p435
(dp436
g5
F0.81000000000000005
sg6
F0.83999999999999997
sg7
F1.0
sg8
I2
sg9
F0.81999999999999995
sg10
I116
sg11
F43.549999999999997
sg12
I1
sg13
F28.420000000000002
sg14
F1062.95
sg15
F26.280000000000001
sg16
F494.45999999999998
sg17
I1
sg18
S'PEP'
p437
sg20
I2
sg21
I1
sg22
I1
sg23
S'1ca4_unbound.pdb'
p438
sg25
F0.0
sg26
I0
sg27
F0.33000000000000002
sg28
F3.7400000000000002
sg29
I11
sg30
F3.9500000000000002
sg31
I0
sg32
F0.46999999999999997
sg33
F0.16
sg34
I3
sg35
I0
sg36
I0
sg37
F0.89000000000000001
sg38
I2
sg39
F16.260000000000002
sg40
I2
sg41
I0
sg42
F0.48999999999999999
sg43
F0.33000000000000002
sg44
F251.19
sg45
F0.0
sg46
F0.0
sg47
I1
sg48
I0
sg49
I3
sg50
I0
sg51
I2
sg52
I2
sg53
F25.260000000000002
sg54
I1
sg55
I0
sg56
F-1.25
sg57
F570.99000000000001
sg58
F6.4299999999999997
sg59
F243.28
sg60
I1
sba(iPocket
Pocket
p439
(dp440
g5
F1.0
sg6
F1.0
sg7
F0.45000000000000001
sg8
I0
sg9
F1.0
sg10
I130
sg11
F44.869999999999997
sg12
I0
sg13
F34.950000000000003
sg14
F1316.6400000000001
sg15
F29.760000000000002
sg16
F616.41999999999996
sg17
I0
sg18
S'PEP'
p441
sg20
I1
sg21
I0
sg22
I1
sg23
S'1ca4_unbound.pdb'
p442
sg25
F0.0
sg26
I0
sg27
F0.34000000000000002
sg28
F3.2000000000000002
sg29
I5
sg30
F4.2999999999999998
sg31
I1
sg32
F0.28000000000000003
sg33
F0.20000000000000001
sg34
I2
sg35
I0
sg36
I1
sg37
F1.0
sg38
I2
sg39
F19.98
sg40
I-2
sg41
I0
sg42
F0.58999999999999997
sg43
F0.34000000000000002
sg44
F316.39999999999998
sg45
F0.0
sg46
F0.0
sg47
I0
sg48
I0
sg49
I0
sg50
I0
sg51
I1
sg52
I0
sg53
F11.4
sg54
I1
sg55
I0
sg56
F-1.25
sg57
F570.99000000000001
sg58
F7.6500000000000004
sg59
F300.01999999999998
sg60
I0
sbasS'1ie9'
p443
(lp444
(iPocket
Pocket
p445
(dp446
g5
F0.29999999999999999
sg6
F0.37
sg7
F0.69999999999999996
sg8
I0
sg9
F0.42999999999999999
sg10
I41
sg11
F24.0
sg12
I0
sg13
F28.800000000000001
sg14
F152.94
sg15
F13.32
sg16
F39.509999999999998
sg17
I1
sg18
S'PEP'
p447
sg20
I0
sg21
I0
sg22
I1
sg23
S'1ie9_unbound.pdb'
p448
sg25
F0.0
sg26
I2
sg27
F0.72999999999999998
sg28
F5.0
sg29
I7
sg30
F3.3999999999999999
sg31
I0
sg32
F0.059999999999999998
sg33
F0.050000000000000003
sg34
I0
sg35
I0
sg36
I1
sg37
F0.25
sg38
I0
sg39
F6.7199999999999998
sg40
I-1
sg41
I3
sg42
F0.42999999999999999
sg43
F0.72999999999999998
sg44
F23.100000000000001
sg45
F0.0
sg46
F0.0
sg47
I0
sg48
I0
sg49
I1
sg50
I0
sg51
I0
sg52
I0
sg53
F35.0
sg54
I1
sg55
I0
sg56
F-1.25
sg57
F968.52999999999997
sg58
F2.4900000000000002
sg59
F16.399999999999999
sg60
I0
sba(iPocket
Pocket
p449
(dp450
g5
F0.41999999999999998
sg6
F0.62
sg7
F0.5
sg8
I0
sg9
F0.68999999999999995
sg10
I50
sg11
F28.120000000000001
sg12
I2
sg13
F39.409999999999997
sg14
F327.06
sg15
F2.7799999999999998
sg16
F162.30000000000001
sg17
I0
sg18
S'PEP'
p451
sg20
I1
sg21
I0
sg22
I0
sg23
S'1ie9_unbound.pdb'
p452
sg25
F30.300000000000001
sg26
I0
sg27
F0.88
sg28
F3.4199999999999999
sg29
I5
sg30
F3.52
sg31
I0
sg32
F0.040000000000000001
sg33
F0.17000000000000001
sg34
I0
sg35
I1
sg36
I0
sg37
F0.31
sg38
I1
sg39
F11.300000000000001
sg40
I0
sg41
I2
sg42
F0.46000000000000002
sg43
F0.88
sg44
F128.00999999999999
sg45
F0.46000000000000002
sg46
F1.0
sg47
I4
sg48
I1
sg49
I1
sg50
I0
sg51
I1
sg52
I0
sg53
F31.75
sg54
I0
sg55
I0
sg56
F1.3300000000000001
sg57
F968.52999999999997
sg58
F4.0599999999999996
sg59
F34.289999999999999
sg60
I0
sba(iPocket
Pocket
p453
(dp454
g5
F0.23000000000000001
sg6
F0.52000000000000002
sg7
F0.29999999999999999
sg8
I1
sg9
F0.47999999999999998
sg10
I48
sg11
F46.670000000000002
sg12
I0
sg13
F21.91
sg14
F537.53999999999996
sg15
F16.809999999999999
sg16
F225.40000000000001
sg17
I0
sg18
S'PEP'
p455
sg20
I0
sg21
I0
sg22
I2
sg23
S'1ie9_unbound.pdb'
p456
sg25
F0.0
sg26
I0
sg27
F0.47999999999999998
sg28
F3.1099999999999999
sg29
I3
sg30
F3.8700000000000001
sg31
I1
sg32
F0.01
sg33
F0.48999999999999999
sg34
I0
sg35
I0
sg36
I0
sg37
F0.29999999999999999
sg38
I1
sg39
F7.5599999999999996
sg40
I-1
sg41
I0
sg42
F0.56000000000000005
sg43
F0.47999999999999998
sg44
F73.670000000000002
sg45
F0.0
sg46
F0.0
sg47
I2
sg48
I0
sg49
I0
sg50
I0
sg51
I0
sg52
I1
sg53
F-1.5600000000000001
sg54
I1
sg55
I0
sg56
F-1.25
sg57
F968.52999999999997
sg58
F3.4300000000000002
sg59
F151.72999999999999
sg60
I0
sba(iPocket
Pocket
p457
(dp458
g5
F0.080000000000000002
sg6
F0.59999999999999998
sg7
F0.5
sg8
I0
sg9
F0.55000000000000004
sg10
I57
sg11
F54.840000000000003
sg12
I1
sg13
F8.0
sg14
F441.47000000000003
sg15
F19.399999999999999
sg16
F237.69999999999999
sg17
I0
sg18
S'PEP'
p459
sg20
I2
sg21
I0
sg22
I2
sg23
S'1ie9_unbound.pdb'
p460
sg25
F0.0
sg26
I0
sg27
F0.16
sg28
F3.23
sg29
I5
sg30
F3.9700000000000002
sg31
I1
sg32
F0.01
sg33
F0.23000000000000001
sg34
I1
sg35
I0
sg36
I0
sg37
F0.35999999999999999
sg38
I1
sg39
F8.6999999999999993
sg40
I0
sg41
I0
sg42
F0.54000000000000004
sg43
F0.16
sg44
F117.14
sg45
F0.0
sg46
F0.0
sg47
I2
sg48
I0
sg49
I0
sg50
I1
sg51
I1
sg52
I0
sg53
F9.0
sg54
I0
sg55
I1
sg56
F-1.25
sg57
F968.52999999999997
sg58
F3.9199999999999999
sg59
F120.56
sg60
I0
sba(iPocket
Pocket
p461
(dp462
g5
F0.27000000000000002
sg6
F0.62
sg7
F0.69999999999999996
sg8
I0
sg9
F0.65000000000000002
sg10
I79
sg11
F39.530000000000001
sg12
I4
sg13
F25.420000000000002
sg14
F567.17999999999995
sg15
F24.18
sg16
F240.72999999999999
sg17
I0
sg18
S'PEP'
p463
sg20
I0
sg21
I2
sg22
I0
sg23
S'1ie9_unbound.pdb'
p464
sg25
F0.0
sg26
I2
sg27
F0.39000000000000001
sg28
F4.5800000000000001
sg29
I7
sg30
F4.0199999999999996
sg31
I0
sg32
F0.029999999999999999
sg33
F0.14000000000000001
sg34
I0
sg35
I0
sg36
I0
sg37
F0.5
sg38
I2
sg39
F10.550000000000001
sg40
I-1
sg41
I0
sg42
F0.56999999999999995
sg43
F0.39000000000000001
sg44
F94.189999999999998
sg45
F0.0
sg46
F0.0
sg47
I0
sg48
I0
sg49
I1
sg50
I0
sg51
I0
sg52
I0
sg53
F23.579999999999998
sg54
I1
sg55
I0
sg56
F-1.25
sg57
F968.52999999999997
sg58
F4.0599999999999996
sg59
F146.53999999999999
sg60
I0
sba(iPocket
Pocket
p465
(dp466
g5
F0.089999999999999997
sg6
F0.66000000000000003
sg7
F0.29999999999999999
sg8
I0
sg9
F0.62
sg10
I36
sg11
F29.629999999999999
sg12
I1
sg13
F8.1999999999999993
sg14
F783.52999999999997
sg15
F7.25
sg16
F245.19
sg17
I1
sg18
S'PEP'
p467
sg20
I1
sg21
I0
sg22
I0
sg23
S'1ie9_unbound.pdb'
p468
sg25
F12.119999999999999
sg26
I0
sg27
F0.28000000000000003
sg28
F3.8799999999999999
sg29
I3
sg30
F4.2599999999999998
sg31
I1
sg32
F0.059999999999999998
sg33
F0.050000000000000003
sg34
I1
sg35
I0
sg36
I1
sg37
F0.22
sg38
I0
sg39
F10.01
sg40
I0
sg41
I0
sg42
F0.68999999999999995
sg43
F0.28000000000000003
sg44
F163.03
sg45
F0.029999999999999999
sg46
F0.12
sg47
I0
sg48
I0
sg49
I0
sg50
I1
sg51
I0
sg52
I1
sg53
F47.25
sg54
I0
sg55
I0
sg56
F-0.96999999999999997
sg57
F968.52999999999997
sg58
F4.3200000000000003
sg59
F82.159999999999997
sg60
I0
sba(iPocket
Pocket
p469
(dp470
g5
F0.22
sg6
F0.60999999999999999
sg7
F0.69999999999999996
sg8
I1
sg9
F0.58999999999999997
sg10
I41
sg11
F42.859999999999999
sg12
I2
sg13
F20.73
sg14
F724.71000000000004
sg15
F23.079999999999998
sg16
F292.83999999999997
sg17
I0
sg18
S'PEP'
p471
sg20
I1
sg21
I0
sg22
I0
sg23
S'1ie9_unbound.pdb'
p472
sg25
F0.0
sg26
I0
sg27
F0.54000000000000004
sg28
F4.7000000000000002
sg29
I7
sg30
F4.1600000000000001
sg31
I0
sg32
F0.040000000000000001
sg33
F0.29999999999999999
sg34
I0
sg35
I0
sg36
I0
sg37
F0.25
sg38
I2
sg39
F9.4100000000000001
sg40
I0
sg41
I1
sg42
F0.62
sg43
F0.54000000000000004
sg44
F221.03
sg45
F0.0
sg46
F0.0
sg47
I0
sg48
I0
sg49
I1
sg50
I1
sg51
I0
sg52
I0
sg53
F26.399999999999999
sg54
I0
sg55
I1
sg56
F-1.25
sg57
F968.52999999999997
sg58
F4.0199999999999996
sg59
F71.810000000000002
sg60
I0
sba(iPocket
Pocket
p473
(dp474
g5
F1.0
sg6
F1.0
sg7
F1.0
sg8
I0
sg9
F1.0
sg10
I158
sg11
F18.920000000000002
sg12
I7
sg13
F94.909999999999997
sg14
F834.70000000000005
sg15
F16.620000000000001
sg16
F400.60000000000002
sg17
I2
sg18
S'PEP'
p475
sg20
I3
sg21
I0
sg22
I1
sg23
S'1ie9_unbound.pdb'
p476
sg25
F0.0
sg26
I2
sg27
F0.85999999999999999
sg28
F4.2999999999999998
sg29
I10
sg30
F3.9900000000000002
sg31
I0
sg32
F0.94999999999999996
sg33
F0.080000000000000002
sg34
I4
sg35
I0
sg36
I0
sg37
F1.0
sg38
I0
sg39
F16.789999999999999
sg40
I-1
sg41
I3
sg42
F0.52000000000000002
sg43
F0.85999999999999999
sg44
F342.07999999999998
sg45
F0.0
sg46
F0.0
sg47
I2
sg48
I0
sg49
I0
sg50
I1
sg51
I2
sg52
I0
sg53
F53.030000000000001
sg54
I1
sg55
I1
sg56
F-1.25
sg57
F968.52999999999997
sg58
F6.5300000000000002
sg59
F58.520000000000003
sg60
I1
sba(iPocket
Pocket
p477
(dp478
g5
F0.17000000000000001
sg6
F0.83999999999999997
sg7
F0.90000000000000002
sg8
I1
sg9
F0.76000000000000001
sg10
I67
sg11
F51.219999999999999
sg12
I0
sg13
F16.32
sg14
F977.99000000000001
sg15
F10.949999999999999
sg16
F440.45999999999998
sg17
I1
sg18
S'PEP'
p479
sg20
I2
sg21
I1
sg22
I3
sg23
S'1ie9_unbound.pdb'
p480
sg25
F6.0599999999999996
sg26
I0
sg27
F0.28000000000000003
sg28
F4.0700000000000003
sg29
I9
sg30
F4.4100000000000001
sg31
I0
sg32
F0.02
sg33
F0.31
sg34
I0
sg35
I0
sg36
I0
sg37
F0.41999999999999998
sg38
I2
sg39
F12.43
sg40
I0
sg41
I2
sg42
F0.62
sg43
F0.28000000000000003
sg44
F165.44999999999999
sg45
F0.0
sg46
F0.0
sg47
I0
sg48
I0
sg49
I1
sg50
I0
sg51
I0
sg52
I1
sg53
F2.4300000000000002
sg54
I0
sg55
I0
sg56
F-1.25
sg57
F968.52999999999997
sg58
F5.5099999999999998
sg59
F275.00999999999999
sg60
I0
sbasS'1ywp'
p481
(lp482
(iPocket
Pocket
p483
(dp484
g5
F1.0
sg6
Fnan
sg7
F0.56999999999999995
sg8
I0
sg9
F0.73999999999999999
sg10
I56
sg11
F27.59
sg12
I0
sg13
F33.0
sg14
F761.48000000000002
sg15
F2.02
sg16
F224.59999999999999
sg17
I0
sg18
S'PEP'
p485
sg20
I0
sg21
I0
sg22
I1
sg23
S'1ywp_unbound.pdb'
p486
sg25
F45.450000000000003
sg26
I0
sg27
F0.60999999999999999
sg28
F4.8300000000000001
sg29
I4
sg30
F4.4900000000000002
sg31
I1
sg32
F0.37
sg33
F0.27000000000000002
sg34
I0
sg35
I1
sg36
I0
sg37
F1.0
sg38
I1
sg39
F6.8499999999999996
sg40
I-1
sg41
I0
sg42
F0.69999999999999996
sg43
F0.60999999999999999
sg44
F112.31
sg45
F0.64000000000000001
sg46
F0.72999999999999998
sg47
I0
sg48
I1
sg49
I0
sg50
I1
sg51
I0
sg52
I0
sg53
F16.170000000000002
sg54
I0
sg55
I0
sg56
F1.01
sg57
F860.44000000000005
sg58
F3.0800000000000001
sg59
F112.29000000000001
sg60
I2
sba(iPocket
Pocket
p487
(dp488
g5
F0.55000000000000004
sg6
Fnan
sg7
F1.0
sg8
I0
sg9
F0.87
sg10
I52
sg11
F37.140000000000001
sg12
I0
sg13
F18.0
sg14
F795.13
sg15
F18.73
sg16
F318.31
sg17
I1
sg18
S'PEP'
p489
sg20
I2
sg21
I1
sg22
I0
sg23
S'1ywp_unbound.pdb'
p490
sg25
F0.0
sg26
I0
sg27
F0.37
sg28
F4.2000000000000002
sg29
I7
sg30
F4.4500000000000002
sg31
I0
sg32
F0.13
sg33
F0.34999999999999998
sg34
I0
sg35
I0
sg36
I1
sg37
F0.93000000000000005
sg38
I1
sg39
F8.3000000000000007
sg40
I1
sg41
I1
sg42
F0.65000000000000002
sg43
F0.37
sg44
F161.81999999999999
sg45
F0.0
sg46
F0.0
sg47
I0
sg48
I0
sg49
I1
sg50
I1
sg51
I0
sg52
I1
sg53
F25.300000000000001
sg54
I0
sg55
I0
sg56
F-1.25
sg57
F860.44000000000005
sg58
F3.5600000000000001
sg59
F156.49000000000001
sg60
I0
sbasS'3d1g'
p491
(lp492
(iPocket
Pocket
p493
(dp494
g5
F0.77000000000000002
sg6
F0.45000000000000001
sg7
F0.20999999999999999
sg8
I0
sg9
F0.33000000000000002
sg10
I43
sg11
F14.710000000000001
sg12
I6
sg13
F27.949999999999999
sg14
F171.46000000000001
sg15
F41.200000000000003
sg16
F7.25
sg17
I2
sg18
S'PEP'
p495
sg20
I0
sg21
I0
sg22
I0
sg23
S'3d1g_unbound.pdb'
p496
sg25
F0.0
sg26
I0
sg27
F0.94999999999999996
sg28
F4.8099999999999996
sg29
I3
sg30
F3.1299999999999999
sg31
I0
sg32
F0.81000000000000005
sg33
F0.12
sg34
I0
sg35
I0
sg36
I1
sg37
F0.19
sg38
I0
sg39
F8.6099999999999994
sg40
I0
sg41
I2
sg42
F0.34000000000000002
sg43
F0.94999999999999996
sg44
F7.25
sg45
F0.0
sg46
F0.0
sg47
I0
sg48
I0
sg49
I0
sg50
I0
sg51
I1
sg52
I2
sg53
F80.120000000000005
sg54
I2
sg55
I0
sg56
F-1.25
sg57
F529.26999999999998
sg58
F4.8499999999999996
sg59
F0.0
sg60
I0
sba(iPocket
Pocket
p497
(dp498
g5
F0.87
sg6
F0.42999999999999999
sg7
F0.35999999999999999
sg8
I1
sg9
F0.38
sg10
I43
sg11
F9.6799999999999997
sg12
I3
sg13
F31.530000000000001
sg14
F216.75999999999999
sg15
F19.719999999999999
sg16
F66.950000000000003
sg17
I2
sg18
S'PEP'
p499
sg20
I0
sg21
I0
sg22
I1
sg23
S'3d1g_unbound.pdb'
p500
sg25
F0.0
sg26
I0
sg27
F1.0
sg28
F4.0599999999999996
sg29
I5
sg30
F3.1800000000000002
sg31
I0
sg32
F0.59999999999999998
sg33
F0.080000000000000002
sg34
I0
sg35
I0
sg36
I1
sg37
F0.19
sg38
I0
sg39
F10.23
sg40
I0
sg41
I3
sg42
F0.33000000000000002
sg43
F1.0
sg44
F61.590000000000003
sg45
F0.0
sg46
F0.0
sg47
I3
sg48
I0
sg49
I0
sg50
I0
sg51
I1
sg52
I0
sg53
F48.810000000000002
sg54
I1
sg55
I0
sg56
F-1.25
sg57
F529.26999999999998
sg58
F4.5899999999999999
sg59
F5.3600000000000003
sg60
I0
sba(iPocket
Pocket
p501
(dp502
g5
F0.20000000000000001
sg6
F0.31
sg7
F0.42999999999999999
sg8
I0
sg9
F0.32000000000000001
sg10
I36
sg11
F44.0
sg12
I1
sg13
F7.1100000000000003
sg14
F137.78999999999999
sg15
F49.82
sg16
F88.980000000000004
sg17
I1
sg18
S'PEP'
p503
sg20
I0
sg21
I0
sg22
I0
sg23
S'3d1g_unbound.pdb'
p504
sg25
F0.0
sg26
I2
sg27
F0.25
sg28
F4.6399999999999997
sg29
I6
sg30
F3.29
sg31
I0
sg32
F0.050000000000000003
sg33
F0.28999999999999998
sg34
I0
sg35
I0
sg36
I1
sg37
F0.14999999999999999
sg38
I1
sg39
F8.3499999999999996
sg40
I-3
sg41
I2
sg42
F0.42999999999999999
sg43
F0.25
sg44
F54.340000000000003
sg45
F0.0
sg46
F0.0
sg47
I0
sg48
I0
sg49
I0
sg50
I1
sg51
I1
sg52
I1
sg53
F41.18
sg54
I0
sg55
I0
sg56
F-1.25
sg57
F529.26999999999998
sg58
F3.3599999999999999
sg59
F34.640000000000001
sg60
I0
sba(iPocket
Pocket
p505
(dp506
g5
F0.66000000000000003
sg6
F0.28000000000000003
sg7
F0.070000000000000007
sg8
I0
sg9
F0.28000000000000003
sg10
I37
sg11
F33.329999999999998
sg12
I1
sg13
F23.920000000000002
sg14
F475.16000000000003
sg15
F38.909999999999997
sg16
F174.44
sg17
I1
sg18
S'PEP'
p507
sg20
I0
sg21
I0
sg22
I2
sg23
S'3d1g_unbound.pdb'
p508
sg25
F0.0
sg26
I0
sg27
F0.68000000000000005
sg28
F4.0
sg29
I1
sg30
F4.0700000000000003
sg31
I0
sg32
F0.050000000000000003
sg33
F0.35999999999999999
sg34
I0
sg35
I0
sg36
I0
sg37
F0.16
sg38
I0
sg39
F7.21
sg40
I1
sg41
I0
sg42
F0.60999999999999999
sg43
F0.68000000000000005
sg44
F100.23
sg45
F0.0
sg46
F0.0
sg47
I0
sg48
I0
sg49
I1
sg50
I1
sg51
I0
sg52
I0
sg53
F27.329999999999998
sg54
I0
sg55
I0
sg56
F-1.25
sg57
F529.26999999999998
sg58
F2.96
sg59
F74.209999999999994
sg60
I0
sba(iPocket
Pocket
p509
(dp510
g5
F0.19
sg6
F0.34000000000000002
sg7
F0.5
sg8
I0
sg9
F0.34999999999999998
sg10
I36
sg11
F54.549999999999997
sg12
I0
sg13
F7.0
sg14
F554.21000000000004
sg15
F45.200000000000003
sg16
F197.21000000000001
sg17
I0
sg18
S'PEP'
p511
sg20
I1
sg21
I2
sg22
I0
sg23
S'3d1g_unbound.pdb'
p512
sg25
F0.0
sg26
I0
sg27
F0.22
sg28
F3.7799999999999998
sg29
I7
sg30
F3.6800000000000002
sg31
I0
sg32
F0.01
sg33
F0.17999999999999999
sg34
I0
sg35
I0
sg36
I0
sg37
F0.14999999999999999
sg38
I2
sg39
F9.3599999999999994
sg40
I2
sg41
I0
sg42
F0.48999999999999999
sg43
F0.22
sg44
F94.189999999999998
sg45
F0.0
sg46
F0.0
sg47
I1
sg48
I0
sg49
I2
sg50
I0
sg51
I0
sg52
I1
sg53
F-7.8899999999999997
sg54
I0
sg55
I0
sg56
F-1.25
sg57
F529.26999999999998
sg58
F3.6400000000000001
sg59
F103.01000000000001
sg60
I0
sba(iPocket
Pocket
p513
(dp514
g5
F0.44
sg6
F0.25
sg7
F0.28999999999999998
sg8
I0
sg9
F0.28000000000000003
sg10
I43
sg11
F57.140000000000001
sg12
I1
sg13
F16.0
sg14
F474.31
sg15
F23.719999999999999
sg16
F225.46000000000001
sg17
I1
sg18
S'PEP'
p515
sg20
I1
sg21
I0
sg22
I3
sg23
S'3d1g_unbound.pdb'
p516
sg25
F0.0
sg26
I0
sg27
F0.40000000000000002
sg28
F3.1099999999999999
sg29
I4
sg30
F4.2599999999999998
sg31
I0
sg32
F0.01
sg33
F0.31
sg34
I0
sg35
I0
sg36
I0
sg37
F0.19
sg38
I3
sg39
F7.1100000000000003
sg40
I-3
sg41
I0
sg42
F0.62
sg43
F0.40000000000000002
sg44
F59.170000000000002
sg45
F0.0
sg46
F0.0
sg47
I0
sg48
I0
sg49
I0
sg50
I0
sg51
I0
sg52
I0
sg53
F-17.780000000000001
sg54
I0
sg55
I0
sg56
F-1.25
sg57
F529.26999999999998
sg58
F2.6499999999999999
sg59
F166.28999999999999
sg60
I0
sba(iPocket
Pocket
p517
(dp518
g5
F0.64000000000000001
sg6
F0.40000000000000002
sg7
F0.42999999999999999
sg8
I2
sg9
F0.41999999999999998
sg10
I60
sg11
F48.479999999999997
sg12
I1
sg13
F23.0
sg14
F329.37
sg15
F9.8000000000000007
sg16
F238.90000000000001
sg17
I1
sg18
S'PEP'
p519
sg20
I0
sg21
I1
sg22
I2
sg23
S'3d1g_unbound.pdb'
p520
sg25
F6.7400000000000002
sg26
I0
sg27
F0.40000000000000002
sg28
F4.0800000000000001
sg29
I6
sg30
F3.6800000000000002
sg31
I0
sg32
F0.040000000000000001
sg33
F0.33000000000000002
sg34
I0
sg35
I0
sg36
I1
sg37
F0.26000000000000001
sg38
I1
sg39
F11.48
sg40
I0
sg41
I1
sg42
F0.51000000000000001
sg43
F0.40000000000000002
sg44
F130.5
sg45
F0.0
sg46
F0.0
sg47
I0
sg48
I0
sg49
I0
sg50
I0
sg51
I1
sg52
I0
sg53
F17.170000000000002
sg54
I1
sg55
I0
sg56
F-1.25
sg57
F529.26999999999998
sg58
F4.25
sg59
F108.39
sg60
I0
sba(iPocket
Pocket
p521
(dp522
g5
F0.25
sg6
F0.40999999999999998
sg7
F0.56999999999999995
sg8
I0
sg9
F0.46000000000000002
sg10
I48
sg11
F45.710000000000001
sg12
I1
sg13
F9.0
sg14
F527.59000000000003
sg15
F30.57
sg16
F239.80000000000001
sg17
I0
sg18
S'PEP'
p523
sg20
I1
sg21
I0
sg22
I1
sg23
S'3d1g_unbound.pdb'
p524
sg25
F0.0
sg26
I1
sg27
F0.20999999999999999
sg28
F4.0
sg29
I8
sg30
F3.5800000000000001
sg31
I2
sg32
F0.01
sg33
F0.28999999999999998
sg34
I0
sg35
I0
sg36
I1
sg37
F0.20999999999999999
sg38
I2
sg39
F12.58
sg40
I-3
sg41
I0
sg42
F0.54000000000000004
sg43
F0.20999999999999999
sg44
F50.719999999999999
sg45
F0.0
sg46
F0.0
sg47
I0
sg48
I0
sg49
I0
sg50
I2
sg51
I0
sg52
I0
sg53
F10.58
sg54
I0
sg55
I0
sg56
F-1.25
sg57
F529.26999999999998
sg58
F4.4299999999999997
sg59
F189.08000000000001
sg60
I1
sba(iPocket
Pocket
p525
(dp526
g5
F0.11
sg6
F0.35999999999999999
sg7
F0.28999999999999998
sg8
I0
sg9
F0.33000000000000002
sg10
I37
sg11
F52.0
sg12
I0
sg13
F4.0
sg14
F507.11000000000001
sg15
F9.8200000000000003
sg16
F249.78999999999999
sg17
I1
sg18
S'PEP'
p527
sg20
I0
sg21
I0
sg22
I1
sg23
S'3d1g_unbound.pdb'
p528
sg25
F3.3700000000000001
sg26
I2
sg27
F0.14000000000000001
sg28
F3.7000000000000002
sg29
I4
sg30
F4.04
sg31
I2
sg32
F0.01
sg33
F0.23999999999999999
sg34
I1
sg35
I0
sg36
I0
sg37
F0.16
sg38
I0
sg39
F8.6400000000000006
sg40
I-2
sg41
I0
sg42
F0.60999999999999999
sg43
F0.14000000000000001
sg44
F94.189999999999998
sg45
F0.0
sg46
F0.0
sg47
I0
sg48
I0
sg49
I0
sg50
I1
sg51
I1
sg52
I0
sg53
F19.899999999999999
sg54
I1
sg55
I0
sg56
F-1.25
sg57
F529.26999999999998
sg58
F3.8700000000000001
sg59
F155.59999999999999
sg60
I0
sba(iPocket
Pocket
p529
(dp530
g5
F0.11
sg6
F0.28999999999999998
sg7
F0.42999999999999999
sg8
I0
sg9
F0.26000000000000001
sg10
I40
sg11
F60.0
sg12
I1
sg13
F4.0
sg14
F617.17999999999995
sg15
F7.46
sg16
F251.53
sg17
I0
sg18
S'PEP'
p531
sg20
I2
sg21
I0
sg22
I1
sg23
S'3d1g_unbound.pdb'
p532
sg25
F4.4900000000000002
sg26
I0
sg27
F0.12
sg28
F4.4400000000000004
sg29
I6
sg30
F4.6900000000000004
sg31
I0
sg32
F0.040000000000000001
sg33
F0.17999999999999999
sg34
I0
sg35
I0
sg36
I1
sg37
F0.17000000000000001
sg38
I0
sg39
F6.5199999999999996
sg40
I1
sg41
I2
sg42
F0.53000000000000003
sg43
F0.12
sg44
F71.25
sg45
F0.0
sg46
F0.0
sg47
I0
sg48
I0
sg49
I1
sg50
I0
sg51
I0
sg52
I1
sg53
F36.890000000000001
sg54
I0
sg55
I0
sg56
F-1.25
sg57
F529.26999999999998
sg58
F3.1099999999999999
sg59
F180.28
sg60
I0
sba(iPocket
Pocket
p533
(dp534
g5
F0.11
sg6
F0.35999999999999999
sg7
F0.5
sg8
I1
sg9
F0.32000000000000001
sg10
I36
sg11
F52.170000000000002
sg12
I1
sg13
F4.0
sg14
F621.00999999999999
sg15
F39.740000000000002
sg16
F271.94999999999999
sg17
I0
sg18
S'PEP'
p535
sg20
I1
sg21
I1
sg22
I1
sg23
S'3d1g_unbound.pdb'
p536
sg25
F0.0
sg26
I0
sg27
F0.14000000000000001
sg28
F3.8500000000000001
sg29
I7
sg30
F4.6699999999999999
sg31
I0
sg32
F0.01
sg33
F0.20000000000000001
sg34
I0
sg35
I0
sg36
I0
sg37
F0.14999999999999999
sg38
I3
sg39
F8.3499999999999996
sg40
I-1
sg41
I0
sg42
F0.56000000000000005
sg43
F0.14000000000000001
sg44
F156.99000000000001
sg45
F0.0
sg46
F0.0
sg47
I0
sg48
I0
sg49
I1
sg50
I0
sg51
I1
sg52
I3
sg53
F9.3100000000000005
sg54
I0
sg55
I0
sg56
F-1.25
sg57
F529.26999999999998
sg58
F3.8399999999999999
sg59
F114.95999999999999
sg60
I0
sba(iPocket
Pocket
p537
(dp538
g5
F0.29999999999999999
sg6
F0.39000000000000001
sg7
F0.28999999999999998
sg8
I0
sg9
F0.33000000000000002
sg10
I36
sg11
F48.149999999999999
sg12
I0
sg13
F10.67
sg14
F680.46000000000004
sg15
F17.629999999999999
sg16
F273.74000000000001
sg17
I0
sg18
S'PEP'
p539
sg20
I1
sg21
I0
sg22
I3
sg23
S'3d1g_unbound.pdb'
p540
sg25
F0.0
sg26
I0
sg27
F0.33000000000000002
sg28
F2.6699999999999999
sg29
I4
sg30
F4.2000000000000002
sg31
I1
sg32
F0.01
sg33
F0.25
sg34
I0
sg35
I0
sg36
I0
sg37
F0.14999999999999999
sg38
I1
sg39
F8.7699999999999996
sg40
I0
sg41
I0
sg42
F0.56999999999999995
sg43
F0.33000000000000002
sg44
F140.08000000000001
sg45
F0.0
sg46
F0.0
sg47
I1
sg48
I0
sg49
I1
sg50
I0
sg51
I1
sg52
I0
sg53
F-19.670000000000002
sg54
I0
sg55
I0
sg56
F-1.25
sg57
F529.26999999999998
sg58
F4.21
sg59
F133.66
sg60
I0
sba(iPocket
Pocket
p541
(dp542
g5
F0.26000000000000001
sg6
F0.38
sg7
F0.14000000000000001
sg8
I1
sg9
F0.35999999999999999
sg10
I43
sg11
F42.859999999999999
sg12
I1
sg13
F9.4499999999999993
sg14
F791.13999999999999
sg15
F43.640000000000001
sg16
F281.80000000000001
sg17
I0
sg18
S'PEP'
p543
sg20
I0
sg21
I0
sg22
I3
sg23
S'3d1g_unbound.pdb'
p544
sg25
F0.0
sg26
I0
sg27
F0.26000000000000001
sg28
F3.2000000000000002
sg29
I2
sg30
F4.46
sg31
I1
sg32
F0.01
sg33
F0.089999999999999997
sg34
I0
sg35
I0
sg36
I0
sg37
F0.19
sg38
I0
sg39
F9.6400000000000006
sg40
I0
sg41
I0
sg42
F0.68999999999999995
sg43
F0.26000000000000001
sg44
F129.22
sg45
F0.0
sg46
F0.0
sg47
I1
sg48
I0
sg49
I0
sg50
I1
sg51
I2
sg52
I0
sg53
F10.5
sg54
I0
sg55
I0
sg56
F-1.25
sg57
F529.26999999999998
sg58
F4.1100000000000003
sg59
F152.58000000000001
sg60
I0
sba(iPocket
Pocket
p545
(dp546
g5
F0.46000000000000002
sg6
F0.31
sg7
F0.42999999999999999
sg8
I0
sg9
F0.34999999999999998
sg10
I43
sg11
F32.0
sg12
I0
sg13
F16.670000000000002
sg14
F588.86000000000001
sg15
F42.380000000000003
sg16
F285.14999999999998
sg17
I1
sg18
S'PEP'
p547
sg20
I0
sg21
I0
sg22
I1
sg23
S'3d1g_unbound.pdb'
p548
sg25
F0.0
sg26
I1
sg27
F0.41999999999999998
sg28
F4.2999999999999998
sg29
I6
sg30
F4.6500000000000004
sg31
I1
sg32
F0.02
sg33
F0.28999999999999998
sg34
I0
sg35
I0
sg36
I0
sg37
F0.19
sg38
I1
sg39
F9.2100000000000009
sg40
I-1
sg41
I2
sg42
F0.66000000000000003
sg43
F0.41999999999999998
sg44
F177.52000000000001
sg45
F0.0
sg46
F0.0
sg47
I0
sg48
I0
sg49
I1
sg50
I0
sg51
I1
sg52
I1
sg53
F20.600000000000001
sg54
I0
sg55
I0
sg56
F-1.25
sg57
F529.26999999999998
sg58
F3.3300000000000001
sg59
F107.63
sg60
I0
sba(iPocket
Pocket
p549
(dp550
g5
F0.34999999999999998
sg6
F0.34999999999999998
sg7
F0.42999999999999999
sg8
I0
sg9
F0.40000000000000002
sg10
I47
sg11
F37.039999999999999
sg12
I0
sg13
F12.529999999999999
sg14
F567.91999999999996
sg15
F41.960000000000001
sg16
F305.25999999999999
sg17
I1
sg18
S'PEP'
p551
sg20
I0
sg21
I0
sg22
I1
sg23
S'3d1g_unbound.pdb'
p552
sg25
F0.0
sg26
I1
sg27
F0.32000000000000001
sg28
F4.2999999999999998
sg29
I6
sg30
F4.4000000000000004
sg31
I1
sg32
F0.02
sg33
F0.27000000000000002
sg34
I0
sg35
I0
sg36
I0
sg37
F0.20000000000000001
sg38
I1
sg39
F10.640000000000001
sg40
I-1
sg41
I2
sg42
F0.56999999999999995
sg43
F0.32000000000000001
sg44
F161.81999999999999
sg45
F0.0
sg46
F0.0
sg47
I0
sg48
I0
sg49
I1
sg50
I0
sg51
I1
sg52
I1
sg53
F20.600000000000001
sg54
I0
sg55
I0
sg56
F-1.25
sg57
F529.26999999999998
sg58
F3.71
sg59
F143.43000000000001
sg60
I0
sba(iPocket
Pocket
p553
(dp554
g5
F1.0
sg6
F0.45000000000000001
sg7
F0.5
sg8
I1
sg9
F0.45000000000000001
sg10
I77
sg11
F41.460000000000001
sg12
I2
sg13
F36.100000000000001
sg14
F674.76999999999998
sg15
F2.3300000000000001
sg16
F318.42000000000002
sg17
I1
sg18
S'PEP'
p555
sg20
I1
sg21
I0
sg22
I3
sg23
S'3d1g_unbound.pdb'
p556
sg25
F41.57
sg26
I1
sg27
F0.53000000000000003
sg28
F4.25
sg29
I7
sg30
F3.79
sg31
I1
sg32
F0.52000000000000002
sg33
F0.059999999999999998
sg34
I1
sg35
I1
sg36
I1
sg37
F0.33000000000000002
sg38
I0
sg39
F12.27
sg40
I-1
sg41
I2
sg42
F0.5
sg43
F0.53000000000000003
sg44
F185.97
sg45
F0.79000000000000004
sg46
F0.88
sg47
I0
sg48
I1
sg49
I0
sg50
I0
sg51
I0
sg52
I1
sg53
F30.559999999999999
sg54
I1
sg55
I0
sg56
F1.49
sg57
F529.26999999999998
sg58
F4.8200000000000003
sg59
F132.44
sg60
I0
sba(iPocket
Pocket
p557
(dp558
g5
F0.93000000000000005
sg6
F0.44
sg7
F0.5
sg8
I3
sg9
F0.47999999999999998
sg10
I70
sg11
F44.439999999999998
sg12
I2
sg13
F33.670000000000002
sg14
F746.48000000000002
sg15
F29.789999999999999
sg16
F353.16000000000003
sg17
I0
sg18
S'PEP'
p559
sg20
I0
sg21
I0
sg22
I2
sg23
S'3d1g_unbound.pdb'
p560
sg25
F0.0
sg26
I0
sg27
F0.51000000000000001
sg28
F3.9199999999999999
sg29
I7
sg30
F4.0199999999999996
sg31
I1
sg32
F0.23999999999999999
sg33
F0.63
sg34
I0
sg35
I0
sg36
I1
sg37
F0.29999999999999999
sg38
I1
sg39
F13.17
sg40
I0
sg41
I0
sg42
F0.55000000000000004
sg43
F0.51000000000000001
sg44
F208.91999999999999
sg45
F0.0
sg46
F0.0
sg47
I0
sg48
I0
sg49
I1
sg50
I0
sg51
I0
sg52
I2
sg53
F12.460000000000001
sg54
I0
sg55
I0
sg56
F-1.25
sg57
F529.26999999999998
sg58
F4.6900000000000004
sg59
F144.24000000000001
sg60
I0
sba(iPocket
Pocket
p561
(dp562
g5
F0.35999999999999999
sg6
F0.58999999999999997
sg7
F0.5
sg8
I2
sg9
F0.53000000000000003
sg10
I74
sg11
F60.0
sg12
I3
sg13
F13.0
sg14
F861.47000000000003
sg15
F52.759999999999998
sg16
F388.73000000000002
sg17
I0
sg18
S'PEP'
p563
sg20
I2
sg21
I0
sg22
I4
sg23
S'3d1g_unbound.pdb'
p564
sg25
F0.0
sg26
I0
sg27
F0.19
sg28
F3.5299999999999998
sg29
I7
sg30
F3.9500000000000002
sg31
I1
sg32
F0.01
sg33
F0.14999999999999999
sg34
I0
sg35
I0
sg36
I0
sg37
F0.32000000000000001
sg38
I2
sg39
F14.68
sg40
I-2
sg41
I0
sg42
F0.47999999999999998
sg43
F0.19
sg44
F161.81999999999999
sg45
F0.0
sg46
F0.0
sg47
I1
sg48
I0
sg49
I0
sg50
I1
sg51
I0
sg52
I1
sg53
F7.0
sg54
I0
sg55
I0
sg56
F-1.25
sg57
F529.26999999999998
sg58
F6.2800000000000002
sg59
F226.91
sg60
I0
sba(iPocket
Pocket
p565
(dp566
g5
F0.33000000000000002
sg6
F0.63
sg7
F0.64000000000000001
sg8
I0
sg9
F0.54000000000000004
sg10
I89
sg11
F46.0
sg12
I3
sg13
F11.81
sg14
F927.34000000000003
sg15
F31.210000000000001
sg16
F453.92000000000002
sg17
I1
sg18
S'PEP'
p567
sg20
I0
sg21
I2
sg22
I0
sg23
S'3d1g_unbound.pdb'
p568
sg25
F0.0
sg26
I0
sg27
F0.23999999999999999
sg28
F4.4100000000000001
sg29
I9
sg30
F3.71
sg31
I1
sg32
F0.059999999999999998
sg33
F0.28999999999999998
sg34
I0
sg35
I0
sg36
I2
sg37
F0.39000000000000001
sg38
I2
sg39
F14.970000000000001
sg40
I1
sg41
I1
sg42
F0.46000000000000002
sg43
F0.23999999999999999
sg44
F163.03
sg45
F0.0
sg46
F0.0
sg47
I0
sg48
I0
sg49
I1
sg50
I1
sg51
I1
sg52
I1
sg53
F35.590000000000003
sg54
I1
sg55
I0
sg56
F-1.25
sg57
F529.26999999999998
sg58
F6.71
sg59
F290.88999999999999
sg60
I0
sba(iPocket
Pocket
p569
(dp570
g5
F0.46000000000000002
sg6
F1.0
sg7
F1.0
sg8
I2
sg9
F1.0
sg10
I228
sg11
F48.780000000000001
sg12
I3
sg13
F16.629999999999999
sg14
F1753.02
sg15
F60.340000000000003
sg16
F921.42999999999995
sg17
I3
sg18
S'PEP'
p571
sg20
I2
sg21
I2
sg22
I3
sg23
S'3d1g_unbound.pdb'
p572
sg25
F28.09
sg26
I0
sg27
F0.28000000000000003
sg28
F4.0
sg29
I14
sg30
F3.7799999999999998
sg31
I0
sg32
F0.10000000000000001
sg33
F0.22
sg34
I1
sg35
I0
sg36
I1
sg37
F1.0
sg38
I4
sg39
F28.449999999999999
sg40
I-2
sg41
I3
sg42
F0.5
sg43
F0.28000000000000003
sg44
F396.57999999999998
sg45
F0.0
sg46
F0.0
sg47
I1
sg48
I0
sg49
I0
sg50
I0
sg51
I2
sg52
I1
sg53
F24.670000000000002
sg54
I2
sg55
I0
sg56
F-1.25
sg57
F529.26999999999998
sg58
F10.66
sg59
F524.85000000000002
sg60
I0
sbasS'2x8d'
p573
(lp574
(iPocket
Pocket
p575
(dp576
g5
F0.20999999999999999
sg6
F0.48999999999999999
sg7
F0.67000000000000004
sg8
I0
sg9
F0.52000000000000002
sg10
I36
sg11
F36.0
sg12
I1
sg13
F10.0
sg14
F142.83000000000001
sg15
F47.009999999999998
sg16
F82.980000000000004
sg17
I0
sg18
S'PEP'
p577
sg20
I0
sg21
I1
sg22
I0
sg23
S'2x8d_unbound.pdb'
p578
sg25
F0.0
sg26
I0
sg27
F0.31
sg28
F5.0
sg29
I8
sg30
F3.3199999999999998
sg31
I1
sg32
F0.040000000000000001
sg33
F0.28000000000000003
sg34
I0
sg35
I0
sg36
I1
sg37
F0.28000000000000003
sg38
I1
sg39
F7.8499999999999996
sg40
I1
sg41
I0
sg42
F0.40000000000000002
sg43
F0.31
sg44
F41.060000000000002
sg45
F0.0
sg46
F0.0
sg47
I0
sg48
I0
sg49
I1
sg50
I0
sg51
I0
sg52
I2
sg53
F31.91
sg54
I0
sg55
I0
sg56
F-1.25
sg57
F295.13
sg58
F3.4399999999999999
sg59
F41.920000000000002
sg60
I3
sba(iPocket
Pocket
p579
(dp580
g5
F0.65000000000000002
sg6
F0.64000000000000001
sg7
F0.82999999999999996
sg8
I1
sg9
F0.66000000000000003
sg10
I77
sg11
F42.859999999999999
sg12
I2
sg13
F30.559999999999999
sg14
F286.38
sg15
F31.699999999999999
sg16
F101.2
sg17
I1
sg18
S'PEP'
p581
sg20
I1
sg21
I0
sg22
I1
sg23
S'2x8d_unbound.pdb'
p582
sg25
F0.0
sg26
I0
sg27
F0.46999999999999997
sg28
F3.8900000000000001
sg29
I10
sg30
F3.3999999999999999
sg31
I2
sg32
F0.17000000000000001
sg33
F0.070000000000000007
sg34
I1
sg35
I0
sg36
I2
sg37
F0.60999999999999999
sg38
I0
sg39
F10.15
sg40
I2
sg41
I2
sg42
F0.44
sg43
F0.46999999999999997
sg44
F68.989999999999995
sg45
F0.0
sg46
F0.0
sg47
I1
sg48
I0
sg49
I1
sg50
I0
sg51
I2
sg52
I0
sg53
F27.890000000000001
sg54
I0
sg55
I1
sg56
F-1.25
sg57
F295.13
sg58
F4.4299999999999997
sg59
F32.210000000000001
sg60
I0
sba(iPocket
Pocket
p583
(dp584
g5
F0.13
sg6
F0.41999999999999998
sg7
F0.5
sg8
I0
sg9
F0.46999999999999997
sg10
I39
sg11
F44.0
sg12
I1
sg13
F6.0
sg14
F165.72999999999999
sg15
F17.359999999999999
sg16
F119.29000000000001
sg17
I1
sg18
S'PEP'
p585
sg20
I0
sg21
I2
sg22
I0
sg23
S'2x8d_unbound.pdb'
p586
sg25
F0.0
sg26
I1
sg27
F0.17999999999999999
sg28
F5.5
sg29
I6
sg30
F3.29
sg31
I0
sg32
F0.029999999999999999
sg33
F0.28000000000000003
sg34
I0
sg35
I0
sg36
I0
sg37
F0.29999999999999999
sg38
I0
sg39
F6.9400000000000004
sg40
I2
sg41
I2
sg42
F0.40999999999999998
sg43
F0.17999999999999999
sg44
F59.170000000000002
sg45
F0.0
sg46
F0.0
sg47
I0
sg48
I0
sg49
I1
sg50
I0
sg51
I0
sg52
I0
sg53
F34.119999999999997
sg54
I0
sg55
I0
sg56
F-1.25
sg57
F295.13
sg58
F2.9500000000000002
sg59
F60.109999999999999
sg60
I0
sba(iPocket
Pocket
p587
(dp588
g5
F0.68999999999999995
sg6
F0.47999999999999998
sg7
F0.41999999999999998
sg8
I1
sg9
F0.58999999999999997
sg10
I55
sg11
F26.670000000000002
sg12
I4
sg13
F32.649999999999999
sg14
F620.16999999999996
sg15
F32.530000000000001
sg16
F216.75999999999999
sg17
I0
sg18
S'PEP'
p589
sg20
I0
sg21
I0
sg22
I0
sg23
S'2x8d_unbound.pdb'
p590
sg25
F0.0
sg26
I0
sg27
F0.62
sg28
F5.0999999999999996
sg29
I5
sg30
F4.1200000000000001
sg31
I0
sg32
F0.48999999999999999
sg33
F0.13
sg34
I0
sg35
I0
sg36
I1
sg37
F0.42999999999999999
sg38
I0
sg39
F9.0500000000000007
sg40
I2
sg41
I1
sg42
F0.58999999999999997
sg43
F0.62
sg44
F140.08000000000001
sg45
F0.0
sg46
F0.0
sg47
I0
sg48
I0
sg49
I1
sg50
I0
sg51
I0
sg52
I0
sg53
F58.700000000000003
sg54
I1
sg55
I1
sg56
F-1.25
sg57
F295.13
sg58
F3.3799999999999999
sg59
F76.670000000000002
sg60
I0
sba(iPocket
Pocket
p591
(dp592
g5
F0.78000000000000003
sg6
F0.45000000000000001
sg7
F0.17000000000000001
sg8
I1
sg9
F0.5
sg10
I51
sg11
F29.629999999999999
sg12
I1
sg13
F36.950000000000003
sg14
F584.57000000000005
sg15
F32.030000000000001
sg16
F223.63
sg17
I1
sg18
S'PEP'
p593
sg20
I0
sg21
I0
sg22
I0
sg23
S'2x8d_unbound.pdb'
p594
sg25
F0.0
sg26
I0
sg27
F0.75
sg28
F3.5600000000000001
sg29
I2
sg30
F3.98
sg31
I0
sg32
F0.22
sg33
F0.23000000000000001
sg34
I1
sg35
I0
sg36
I0
sg37
F0.40000000000000002
sg38
I1
sg39
F7.54
sg40
I-1
sg41
I0
sg42
F0.56999999999999995
sg43
F0.75
sg44
F176.31
sg45
F0.0
sg46
F0.0
sg47
I1
sg48
I0
sg49
I0
sg50
I0
sg51
I1
sg52
I2
sg53
F38.670000000000002
sg54
I0
sg55
I0
sg56
F-1.25
sg57
F295.13
sg58
F3.1299999999999999
sg59
F47.32
sg60
I0
sba(iPocket
Pocket
p595
(dp596
g5
F0.12
sg6
F0.5
sg7
F0.5
sg8
I1
sg9
F0.56999999999999995
sg10
I40
sg11
F46.149999999999999
sg12
I0
sg13
F5.71
sg14
F296.49000000000001
sg15
F31.890000000000001
sg16
F232.05000000000001
sg17
I1
sg18
S'PEP'
p597
sg20
I0
sg21
I0
sg22
I2
sg23
S'2x8d_unbound.pdb'
p598
sg25
F0.0
sg26
I0
sg27
F0.17000000000000001
sg28
F3.2999999999999998
sg29
I6
sg30
F3.6800000000000002
sg31
I2
sg32
F0.01
sg33
F0.26000000000000001
sg34
I0
sg35
I0
sg36
I0
sg37
F0.31
sg38
I0
sg39
F8.6199999999999992
sg40
I3
sg41
I0
sg42
F0.48999999999999999
sg43
F0.17000000000000001
sg44
F86.950000000000003
sg45
F0.0
sg46
F0.0
sg47
I0
sg48
I0
sg49
I3
sg50
I0
sg51
I1
sg52
I0
sg53
F-4.4000000000000004
sg54
I0
sg55
I0
sg56
F-1.25
sg57
F295.13
sg58
F3.5
sg59
F145.09999999999999
sg60
I0
sba(iPocket
Pocket
p599
(dp600
g5
F0.40000000000000002
sg6
F0.58999999999999997
sg7
F0.41999999999999998
sg8
I0
sg9
F0.60999999999999999
sg10
I41
sg11
F37.039999999999999
sg12
I0
sg13
F18.699999999999999
sg14
F525.71000000000004
sg15
F43.020000000000003
sg16
F233.99000000000001
sg17
I1
sg18
S'PEP'
p601
sg20
I1
sg21
I1
sg22
I1
sg23
S'2x8d_unbound.pdb'
p602
sg25
F0.0
sg26
I1
sg27
F0.48999999999999999
sg28
F3.7799999999999998
sg29
I5
sg30
F3.6699999999999999
sg31
I0
sg32
F0.01
sg33
F0.080000000000000002
sg34
I0
sg35
I0
sg36
I0
sg37
F0.32000000000000001
sg38
I2
sg39
F9.3699999999999992
sg40
I-2
sg41
I0
sg42
F0.46000000000000002
sg43
F0.48999999999999999
sg44
F130.41999999999999
sg45
F0.0
sg46
F0.0
sg47
I0
sg48
I0
sg49
I0
sg50
I0
sg51
I0
sg52
I2
sg53
F-2.0
sg54
I0
sg55
I0
sg56
F-1.25
sg57
F295.13
sg58
F4.1200000000000001
sg59
F103.56999999999999
sg60
I0
sba(iPocket
Pocket
p603
(dp604
g5
F0.25
sg6
F0.46999999999999997
sg7
F0.57999999999999996
sg8
I0
sg9
F0.60999999999999999
sg10
I40
sg11
F42.310000000000002
sg12
I1
sg13
F11.69
sg14
F641.77999999999997
sg15
F49.520000000000003
sg16
F272.81
sg17
I0
sg18
S'PEP'
p605
sg20
I0
sg21
I1
sg22
I0
sg23
S'2x8d_unbound.pdb'
p606
sg25
F0.0
sg26
I1
sg27
F0.32000000000000001
sg28
F4.7800000000000002
sg29
I7
sg30
F4.5499999999999998
sg31
I0
sg32
F0.02
sg33
F0.26000000000000001
sg34
I0
sg35
I0
sg36
I0
sg37
F0.31
sg38
I1
sg39
F9.4299999999999997
sg40
I1
sg41
I1
sg42
F0.60999999999999999
sg43
F0.32000000000000001
sg44
F152.16
sg45
F0.0
sg46
F0.0
sg47
I0
sg48
I0
sg49
I2
sg50
I0
sg51
I1
sg52
I0
sg53
F23.0
sg54
I0
sg55
I0
sg56
F-1.25
sg57
F295.13
sg58
F3.29
sg59
F120.65000000000001
sg60
I1
sba(iPocket
Pocket
p607
(dp608
g5
F0.52000000000000002
sg6
F0.73999999999999999
sg7
F1.0
sg8
I1
sg9
F0.68999999999999995
sg10
I78
sg11
F40.909999999999997
sg12
I4
sg13
F24.469999999999999
sg14
F516.99000000000001
sg15
F15.19
sg16
F296.56999999999999
sg17
I1
sg18
S'PEP'
p609
sg20
I1
sg21
I2
sg22
I0
sg23
S'2x8d_unbound.pdb'
p610
sg25
F0.0
sg26
I0
sg27
F0.38
sg28
F4.1500000000000004
sg29
I12
sg30
F3.77
sg31
I1
sg32
F0.11
sg33
F0.33000000000000002
sg34
I1
sg35
I0
sg36
I0
sg37
F0.62
sg38
I4
sg39
F10.779999999999999
sg40
I-1
sg41
I2
sg42
F0.44
sg43
F0.38
sg44
F156.99000000000001
sg45
F0.0
sg46
F0.0
sg47
I1
sg48
I0
sg49
I1
sg50
I0
sg51
I1
sg52
I0
sg53
F22.75
sg54
I0
sg55
I0
sg56
F-1.25
sg57
F295.13
sg58
F5.1399999999999997
sg59
F139.58000000000001
sg60
I0
sba(iPocket
Pocket
p611
(dp612
g5
F0.56000000000000005
sg6
F0.73999999999999999
sg7
F0.82999999999999996
sg8
I1
sg9
F0.78000000000000003
sg10
I76
sg11
F36.590000000000003
sg12
I1
sg13
F26.469999999999999
sg14
F615.86000000000001
sg15
F19.280000000000001
sg16
F320.38
sg17
I0
sg18
S'PEP'
p613
sg20
I0
sg21
I2
sg22
I0
sg23
S'2x8d_unbound.pdb'
p614
sg25
F0.0
sg26
I1
sg27
F0.39000000000000001
sg28
F4.29
sg29
I10
sg30
F3.9399999999999999
sg31
I2
sg32
F0.050000000000000003
sg33
F0.45000000000000001
sg34
I1
sg35
I0
sg36
I0
sg37
F0.59999999999999998
sg38
I1
sg39
F12.18
sg40
I2
sg41
I1
sg42
F0.5
sg43
F0.39000000000000001
sg44
F185.56
sg45
F0.0
sg46
F0.0
sg47
I1
sg48
I0
sg49
I1
sg50
I0
sg51
I1
sg52
I0
sg53
F7.79
sg54
I0
sg55
I1
sg56
F-1.25
sg57
F295.13
sg58
F5.1600000000000001
sg59
F134.81999999999999
sg60
I0
sba(iPocket
Pocket
p615
(dp616
g5
F1.0
sg6
F0.93999999999999995
sg7
F0.82999999999999996
sg8
I1
sg9
F1.0
sg10
I118
sg11
F36.670000000000002
sg12
I0
sg13
F47.109999999999999
sg14
F1067.5599999999999
sg15
F38.009999999999998
sg16
F469.82999999999998
sg17
I0
sg18
S'PEP'
p617
sg20
I1
sg21
I0
sg22
I2
sg23
S'2x8d_unbound.pdb'
p618
sg25
F0.0
sg26
I2
sg27
F0.58999999999999997
sg28
F3.8799999999999999
sg29
I10
sg30
F4.0
sg31
I0
sg32
F0.47999999999999998
sg33
F0.11
sg34
I0
sg35
I0
sg36
I1
sg37
F0.93999999999999995
sg38
I2
sg39
F15.960000000000001
sg40
I-3
sg41
I2
sg42
F0.53000000000000003
sg43
F0.58999999999999997
sg44
F289.82999999999998
sg45
F0.0
sg46
F0.0
sg47
I2
sg48
I0
sg49
I1
sg50
I0
sg51
I0
sg52
I3
sg53
F9.2899999999999991
sg54
I0
sg55
I0
sg56
F-1.25
sg57
F295.13
sg58
F6.5199999999999996
sg59
F180.0
sg60
I0
sba(iPocket
Pocket
p619
(dp620
g5
F0.97999999999999998
sg6
F1.0
sg7
F0.75
sg8
I1
sg9
F1.0
sg10
I126
sg11
F26.98
sg12
I1
sg13
F45.969999999999999
sg14
F1269.0799999999999
sg15
F2.2999999999999998
sg16
F551.38999999999999
sg17
I1
sg18
S'PEP'
p621
sg20
I0
sg21
I0
sg22
I1
sg23
S'2x8d_unbound.pdb'
p622
sg25
F75.409999999999997
sg26
I1
sg27
F0.59999999999999998
sg28
F4.0599999999999996
sg29
I9
sg30
F4.2800000000000002
sg31
I1
sg32
F0.48999999999999999
sg33
F0.44
sg34
I2
sg35
I1
sg36
I0
sg37
F1.0
sg38
I3
sg39
F15.93
sg40
I-4
sg41
I2
sg42
F0.56999999999999995
sg43
F0.59999999999999998
sg44
F280.17000000000002
sg45
F0.59999999999999998
sg46
F1.0
sg47
I1
sg48
I1
sg49
I0
sg50
I0
sg51
I1
sg52
I0
sg53
F19.879999999999999
sg54
I0
sg55
I0
sg56
F1.5
sg57
F295.13
sg58
F6.9199999999999999
sg59
F271.22000000000003
sg60
I1
sbasS'1eg3'
p623
(lp624
(iPocket
Pocket
p625
(dp626
g5
F0.83999999999999997
sg6
Fnan
sg7
F0.5
sg8
I0
sg9
F0.68000000000000005
sg10
I41
sg11
F42.310000000000002
sg12
I2
sg13
F24.690000000000001
sg14
F196.75
sg15
F29.100000000000001
sg16
F125.95999999999999
sg17
I0
sg18
S'PEP'
p627
sg20
I0
sg21
I0
sg22
I1
sg23
S'1eg3_unbound.pdb'
p628
sg25
F0.0
sg26
I0
sg27
F0.63
sg28
F3.2999999999999998
sg29
I3
sg30
F3.4399999999999999
sg31
I1
sg32
F0.23999999999999999
sg33
F0.17000000000000001
sg34
I0
sg35
I0
sg36
I1
sg37
F0.68000000000000005
sg38
I1
sg39
F7.7300000000000004
sg40
I-1
sg41
I0
sg42
F0.46000000000000002
sg43
F0.63
sg44
F74.870000000000005
sg45
F0.0
sg46
F0.0
sg47
I1
sg48
I0
sg49
I0
sg50
I1
sg51
I2
sg52
I0
sg53
F26.399999999999999
sg54
I0
sg55
I0
sg56
F-1.25
sg57
F1161.8299999999999
sg58
F3.2799999999999998
sg59
F51.090000000000003
sg60
I0
sba(iPocket
Pocket
p629
(dp630
g5
F0.46999999999999997
sg6
Fnan
sg7
F0.82999999999999996
sg8
I0
sg9
F0.51000000000000001
sg10
I37
sg11
F50.0
sg12
I1
sg13
F14.0
sg14
F219.69999999999999
sg15
F26.109999999999999
sg16
F129.62
sg17
I0
sg18
S'PEP'
p631
sg20
I0
sg21
I0
sg22
I1
sg23
S'1eg3_unbound.pdb'
p632
sg25
F0.0
sg26
I1
sg27
F0.40999999999999998
sg28
F4.0
sg29
I5
sg30
F3.6899999999999999
sg31
I1
sg32
F0.050000000000000003
sg33
F0.050000000000000003
sg34
I0
sg35
I0
sg36
I0
sg37
F0.60999999999999999
sg38
I0
sg39
F5.4699999999999998
sg40
I2
sg41
I0
sg42
F0.5
sg43
F0.40999999999999998
sg44
F60.380000000000003
sg45
F0.0
sg46
F0.0
sg47
I0
sg48
I0
sg49
I2
sg50
I1
sg51
I2
sg52
I0
sg53
F17.800000000000001
sg54
I0
sg55
I1
sg56
F-1.25
sg57
F1161.8299999999999
sg58
F2.4399999999999999
sg59
F69.239999999999995
sg60
I0
sba(iPocket
Pocket
p633
(dp634
g5
F0.64000000000000001
sg6
Fnan
sg7
F0.33000000000000002
sg8
I0
sg9
F0.66000000000000003
sg10
I36
sg11
F40.0
sg12
I2
sg13
F19.0
sg14
F388.95999999999998
sg15
F29.59
sg16
F194.11000000000001
sg17
I0
sg18
S'PEP'
p635
sg20
I0
sg21
I0
sg22
I1
sg23
S'1eg3_unbound.pdb'
p636
sg25
F0.0
sg26
I0
sg27
F0.56000000000000005
sg28
F4.1200000000000001
sg29
I2
sg30
F3.8300000000000001
sg31
I0
sg32
F0.10000000000000001
sg33
F0.17000000000000001
sg34
I1
sg35
I0
sg36
I0
sg37
F0.58999999999999997
sg38
I2
sg39
F7.4299999999999997
sg40
I-2
sg41
I0
sg42
F0.52000000000000002
sg43
F0.56000000000000005
sg44
F109.89
sg45
F0.0
sg46
F0.0
sg47
I0
sg48
I0
sg49
I0
sg50
I0
sg51
I0
sg52
I1
sg53
F36.119999999999997
sg54
I1
sg55
I0
sg56
F-1.25
sg57
F1161.8299999999999
sg58
F3.3500000000000001
sg59
F84.219999999999999
sg60
I0
sba(iPocket
Pocket
p637
(dp638
g5
F0.0
sg6
Fnan
sg7
F1.0
sg8
I1
sg9
F0.88
sg10
I39
sg11
F55.170000000000002
sg12
I0
sg13
F0.0
sg14
F683.0
sg15
F8.3499999999999996
sg16
F251.31
sg17
I0
sg18
S'PEP'
p639
sg20
I1
sg21
I0
sg22
I2
sg23
S'1eg3_unbound.pdb'
p640
sg25
F2.5299999999999998
sg26
I0
sg27
F0.029999999999999999
sg28
F3.0899999999999999
sg29
I6
sg30
F4.04
sg31
I2
sg32
F0.029999999999999999
sg33
F0.23999999999999999
sg34
I1
sg35
I0
sg36
I2
sg37
F0.64000000000000001
sg38
I0
sg39
F10.210000000000001
sg40
I0
sg41
I0
sg42
F0.59999999999999998
sg43
F0.029999999999999999
sg44
F84.530000000000001
sg45
F0.0
sg46
F0.0
sg47
I1
sg48
I0
sg49
I0
sg50
I0
sg51
I0
sg52
I1
sg53
F1.1799999999999999
sg54
I0
sg55
I0
sg56
F-1.25
sg57
F1161.8299999999999
sg58
F4.4199999999999999
sg59
F166.78
sg60
I0
sba(iPocket
Pocket
p641
(dp642
g5
F0.79000000000000004
sg6
Fnan
sg7
F0.82999999999999996
sg8
I0
sg9
F0.94999999999999996
sg10
I43
sg11
F37.5
sg12
I2
sg13
F23.41
sg14
F521.94000000000005
sg15
F14.74
sg16
F256.0
sg17
I0
sg18
S'PEP'
p643
sg20
I0
sg21
I1
sg22
I2
sg23
S'1eg3_unbound.pdb'
p644
sg25
F0.0
sg26
I1
sg27
F0.63
sg28
F4.5999999999999996
sg29
I5
sg30
F3.6000000000000001
sg31
I2
sg32
F0.26000000000000001
sg33
F0.19
sg34
I0
sg35
I0
sg36
I0
sg37
F0.70999999999999996
sg38
I0
sg39
F11.119999999999999
sg40
I0
sg41
I1
sg42
F0.48999999999999999
sg43
F0.63
sg44
F158.19999999999999
sg45
F0.0
sg46
F0.0
sg47
I0
sg48
I0
sg49
I0
sg50
I1
sg51
I0
sg52
I0
sg53
F19.300000000000001
sg54
I0
sg55
I0
sg56
F-1.25
sg57
F1161.8299999999999
sg58
F4.5
sg59
F97.799999999999997
sg60
I0
sba(iPocket
Pocket
p645
(dp646
g5
F0.10000000000000001
sg6
Fnan
sg7
F1.0
sg8
I0
sg9
F1.0
sg10
I60
sg11
F65.620000000000005
sg12
I1
sg13
F3.0
sg14
F978.19000000000005
sg15
F22.84
sg16
F442.38999999999999
sg17
I0
sg18
S'PEP'
p647
sg20
I1
sg21
I1
sg22
I2
sg23
S'1eg3_unbound.pdb'
p648
sg25
F0.0
sg26
I0
sg27
F0.070000000000000007
sg28
F4.3300000000000001
sg29
I6
sg30
F4.8300000000000001
sg31
I1
sg32
F0.070000000000000007
sg33
F0.37
sg34
I0
sg35
I0
sg36
I0
sg37
F1.0
sg38
I0
sg39
F11.76
sg40
I3
sg41
I1
sg42
F0.53000000000000003
sg43
F0.070000000000000007
sg44
F141.28999999999999
sg45
F0.0
sg46
F0.0
sg47
I0
sg48
I0
sg49
I2
sg50
I2
sg51
I1
sg52
I0
sg53
F25.420000000000002
sg54
I0
sg55
I0
sg56
F-1.25
sg57
F1161.8299999999999
sg58
F4.4100000000000001
sg59
F301.10000000000002
sg60
I0
sbasS'1jbe'
p649
(lp650
(iPocket
Pocket
p651
(dp652
g5
F0.72999999999999998
sg6
F0.90000000000000002
sg7
F0.70999999999999996
sg8
I0
sg9
F0.95999999999999996
sg10
I40
sg11
F31.030000000000001
sg12
I2
sg13
F17.68
sg14
F295.81999999999999
sg15
F4.8700000000000001
sg16
F163.25999999999999
sg17
I1
sg18
S'PEP'
p653
sg20
I0
sg21
I0
sg22
I0
sg23
S'1jbe_unbound.pdb'
p654
sg25
F14.289999999999999
sg26
I0
sg27
F0.62
sg28
F4.3799999999999999
sg29
I5
sg30
F3.5099999999999998
sg31
I0
sg32
F0.35999999999999999
sg33
F0.31
sg34
I0
sg35
I0
sg36
I1
sg37
F0.69999999999999996
sg38
I1
sg39
F10.82
sg40
I1
sg41
I1
sg42
F0.46999999999999997
sg43
F0.62
sg44
F73.670000000000002
sg45
F0.0
sg46
F0.0
sg47
I0
sg48
I0
sg49
I2
sg50
I0
sg51
I0
sg52
I0
sg53
F39.75
sg54
I0
sg55
I0
sg56
F-1.25
sg57
F1109.0599999999999
sg58
F4.25
sg59
F89.590000000000003
sg60
I0
sba(iPocket
Pocket
p655
(dp656
g5
F1.0
sg6
F0.98999999999999999
sg7
F0.70999999999999996
sg8
I1
sg9
F1.0
sg10
I57
sg11
F41.18
sg12
I0
sg13
F24.219999999999999
sg14
F444.38
sg15
F0.81999999999999995
sg16
F256.31999999999999
sg17
I0
sg18
S'PEP'
p657
sg20
I1
sg21
I0
sg22
I0
sg23
S'1jbe_unbound.pdb'
p658
sg25
F52.380000000000003
sg26
I0
sg27
F0.63
sg28
F2.73
sg29
I5
sg30
F3.6899999999999999
sg31
I0
sg32
F0.48999999999999999
sg33
F0.13
sg34
I1
sg35
I1
sg36
I0
sg37
F1.0
sg38
I0
sg39
F11.31
sg40
I3
sg41
I0
sg42
F0.46999999999999997
sg43
F0.63
sg44
F161.81999999999999
sg45
F0.77000000000000002
sg46
F0.92000000000000004
sg47
I2
sg48
I1
sg49
I3
sg50
I0
sg51
I3
sg52
I0
sg53
F18.91
sg54
I0
sg55
I0
sg56
F1.55
sg57
F1109.0599999999999
sg58
F4.6299999999999999
sg59
F94.5
sg60
I0
sbasS'2j2i'
p659
(lp660
(iPocket
Pocket
p661
(dp662
g5
F0.57999999999999996
sg6
F0.83999999999999997
sg7
F0.92000000000000004
sg8
I1
sg9
F0.93000000000000005
sg10
I120
sg11
F27.870000000000001
sg12
I2
sg13
F47.969999999999999
sg14
F376.99000000000001
sg15
F10.25
sg16
F126.92
sg17
I1
sg18
S'PEP'
p663
sg20
I2
sg21
I0
sg22
I1
sg23
S'2j2i_unbound.pdb'
p664
sg25
F2.3500000000000001
sg26
I2
sg27
F0.60999999999999999
sg28
F3.8999999999999999
sg29
I11
sg30
F3.3999999999999999
sg31
I1
sg32
F0.14000000000000001
sg33
F0.17999999999999999
sg34
I2
sg35
I0
sg36
I1
sg37
F0.77000000000000002
sg38
I0
sg39
F14.6
sg40
I0
sg41
I1
sg42
F0.41999999999999998
sg43
F0.60999999999999999
sg44
F97.819999999999993
sg45
F0.0
sg46
F0.0
sg47
I1
sg48
I0
sg49
I1
sg50
I0
sg51
I2
sg52
I1
sg53
F26.949999999999999
sg54
I0
sg55
I1
sg56
F-1.25
sg57
F699.79999999999995
sg58
F5.4699999999999998
sg59
F29.109999999999999
sg60
I1
sba(iPocket
Pocket
p665
(dp666
g5
F0.17000000000000001
sg6
F0.55000000000000004
sg7
F0.33000000000000002
sg8
I1
sg9
F0.60999999999999999
sg10
I36
sg11
F45.829999999999998
sg12
I2
sg13
F14.0
sg14
F405.61000000000001
sg15
F17.73
sg16
F144.99000000000001
sg17
I1
sg18
S'PEP'
p667
sg20
I0
sg21
I0
sg22
I1
sg23
S'2j2i_unbound.pdb'
p668
sg25
F0.0
sg26
I0
sg27
F0.41999999999999998
sg28
F4.2699999999999996
sg29
I4
sg30
F3.4300000000000002
sg31
I0
sg32
F0.040000000000000001
sg33
F0.20000000000000001
sg34
I0
sg35
I0
sg36
I0
sg37
F0.23000000000000001
sg38
I1
sg39
F9.1699999999999999
sg40
I-1
sg41
I1
sg42
F0.45000000000000001
sg43
F0.41999999999999998
sg44
F66.420000000000002
sg45
F0.0
sg46
F0.0
sg47
I1
sg48
I0
sg49
I0
sg50
I1
sg51
I1
sg52
I0
sg53
F39.729999999999997
sg54
I0
sg55
I0
sg56
F-1.25
sg57
F699.79999999999995
sg58
F3.54
sg59
F78.569999999999993
sg60
I1
sba(iPocket
Pocket
p669
(dp670
g5
F0.37
sg6
F0.51000000000000001
sg7
F0.33000000000000002
sg8
I0
sg9
F0.63
sg10
I36
sg11
F26.920000000000002
sg12
I1
sg13
F30.190000000000001
sg14
F219.08000000000001
sg15
F23.390000000000001
sg16
F154.99000000000001
sg17
I1
sg18
S'PEP'
p671
sg20
I0
sg21
I0
sg22
I1
sg23
S'2j2i_unbound.pdb'
p672
sg25
F0.0
sg26
I1
sg27
F0.89000000000000001
sg28
F4.0
sg29
I4
sg30
F3.5
sg31
I0
sg32
F0.02
sg33
F0.46000000000000002
sg34
I1
sg35
I0
sg36
I0
sg37
F0.23000000000000001
sg38
I1
sg39
F9.4700000000000006
sg40
I-2
sg41
I2
sg42
F0.45000000000000001
sg43
F0.89000000000000001
sg44
F115.93000000000001
sg45
F0.0
sg46
F0.0
sg47
I2
sg48
I0
sg49
I0
sg50
I0
sg51
I0
sg52
I0
sg53
F28.600000000000001
sg54
I0
sg55
I0
sg56
F-1.25
sg57
F699.79999999999995
sg58
F3.3100000000000001
sg59
F39.060000000000002
sg60
I0
sba(iPocket
Pocket
p673
(dp674
g5
F0.40999999999999998
sg6
F0.48999999999999999
sg7
F0.57999999999999996
sg8
I0
sg9
F0.5
sg10
I36
sg11
F28.57
sg12
I1
sg13
F34.0
sg14
F238.84999999999999
sg15
F22.059999999999999
sg16
F172.65000000000001
sg17
I0
sg18
S'PEP'
p675
sg20
I0
sg21
I0
sg22
I0
sg23
S'2j2i_unbound.pdb'
p676
sg25
F0.0
sg26
I0
sg27
F0.96999999999999997
sg28
F5.7800000000000002
sg29
I7
sg30
F3.54
sg31
I0
sg32
F0.22
sg33
F0.48999999999999999
sg34
I0
sg35
I0
sg36
I0
sg37
F0.23000000000000001
sg38
I1
sg39
F7.3399999999999999
sg40
I1
sg41
I3
sg42
F0.42999999999999999
sg43
F0.96999999999999997
sg44
F161.81999999999999
sg45
F0.0
sg46
F0.0
sg47
I0
sg48
I0
sg49
I2
sg50
I0
sg51
I0
sg52
I1
sg53
F54.219999999999999
sg54
I0
sg55
I0
sg56
F-1.25
sg57
F699.79999999999995
sg58
F3.1699999999999999
sg59
F10.83
sg60
I1
sba(iPocket
Pocket
p677
(dp678
g5
F0.34000000000000002
sg6
F0.5
sg7
F0.33000000000000002
sg8
I0
sg9
F0.51000000000000001
sg10
I43
sg11
F29.629999999999999
sg12
I0
sg13
F27.93
sg14
F393.56
sg15
F21.949999999999999
sg16
F182.38999999999999
sg17
I1
sg18
S'PEP'
p679
sg20
I2
sg21
I0
sg22
I2
sg23
S'2j2i_unbound.pdb'
p680
sg25
F0.0
sg26
I0
sg27
F0.67000000000000004
sg28
F3.7799999999999998
sg29
I4
sg30
F3.8199999999999998
sg31
I0
sg32
F0.02
sg33
F0.14000000000000001
sg34
I0
sg35
I0
sg36
I1
sg37
F0.27000000000000002
sg38
I0
sg39
F7.5300000000000002
sg40
I0
sg41
I1
sg42
F0.54000000000000004
sg43
F0.67000000000000004
sg44
F143.71000000000001
sg45
F0.0
sg46
F0.0
sg47
I0
sg48
I0
sg49
I0
sg50
I0
sg51
I0
sg52
I2
sg53
F22.780000000000001
sg54
I0
sg55
I0
sg56
F-1.25
sg57
F699.79999999999995
sg58
F3.27
sg59
F38.68
sg60
I0
sba(iPocket
Pocket
p681
(dp682
g5
F0.11
sg6
F0.63
sg7
F0.33000000000000002
sg8
I1
sg9
F0.63
sg10
I38
sg11
F41.670000000000002
sg12
I0
sg13
F9.0
sg14
F397.75
sg15
F12.31
sg16
F196.69
sg17
I2
sg18
S'PEP'
p683
sg20
I0
sg21
I0
sg22
I0
sg23
S'2j2i_unbound.pdb'
p684
sg25
F0.0
sg26
I0
sg27
F0.32000000000000001
sg28
F4.3799999999999999
sg29
I4
sg30
F3.7400000000000002
sg31
I0
sg32
F0.02
sg33
F0.31
sg34
I0
sg35
I0
sg36
I0
sg37
F0.23999999999999999
sg38
I2
sg39
F9.6099999999999994
sg40
I-2
sg41
I1
sg42
F0.5
sg43
F0.32000000000000001
sg44
F92.989999999999995
sg45
F0.0
sg46
F0.0
sg47
I0
sg48
I0
sg49
I0
sg50
I1
sg51
I0
sg52
I1
sg53
F31.120000000000001
sg54
I0
sg55
I0
sg56
F-1.25
sg57
F699.79999999999995
sg58
F4.0800000000000001
sg59
F103.7
sg60
I0
sba(iPocket
Pocket
p685
(dp686
g5
F0.32000000000000001
sg6
F0.57999999999999996
sg7
F0.41999999999999998
sg8
I0
sg9
F0.52000000000000002
sg10
I49
sg11
F37.039999999999999
sg12
I0
sg13
F26.0
sg14
F618.16999999999996
sg15
F19.960000000000001
sg16
F200.69999999999999
sg17
I0
sg18
S'PEP'
p687
sg20
I2
sg21
I0
sg22
I2
sg23
S'2j2i_unbound.pdb'
p688
sg25
F0.0
sg26
I1
sg27
F0.55000000000000004
sg28
F3.7999999999999998
sg29
I5
sg30
F4.1500000000000004
sg31
I0
sg32
F0.01
sg33
F0.14999999999999999
sg34
I2
sg35
I0
sg36
I0
sg37
F0.31
sg38
I1
sg39
F7.6799999999999997
sg40
I-2
sg41
I1
sg42
F0.57999999999999996
sg43
F0.55000000000000004
sg44
F148.53999999999999
sg45
F0.0
sg46
F0.0
sg47
I0
sg48
I0
sg49
I0
sg50
I0
sg51
I0
sg52
I1
sg53
F13.5
sg54
I0
sg55
I0
sg56
F-1.25
sg57
F699.79999999999995
sg58
F3.7799999999999998
sg59
F52.159999999999997
sg60
I0
sba(iPocket
Pocket
p689
(dp690
g5
F0.11
sg6
F0.42999999999999999
sg7
F0.33000000000000002
sg8
I0
sg9
F0.46999999999999997
sg10
I37
sg11
F47.619999999999997
sg12
I1
sg13
F9.0
sg14
F545.22000000000003
sg15
F16.09
sg16
F216.31999999999999
sg17
I0
sg18
S'PEP'
p691
sg20
I0
sg21
I0
sg22
I1
sg23
S'2j2i_unbound.pdb'
p692
sg25
F0.0
sg26
I0
sg27
F0.27000000000000002
sg28
F4.0
sg29
I4
sg30
F4.4299999999999997
sg31
I2
sg32
F0.02
sg33
F0.32000000000000001
sg34
I1
sg35
I0
sg36
I0
sg37
F0.23000000000000001
sg38
I0
sg39
F6.9299999999999997
sg40
I1
sg41
I0
sg42
F0.66000000000000003
sg43
F0.27000000000000002
sg44
F96.769999999999996
sg45
F0.0
sg46
F0.0
sg47
I0
sg48
I0
sg49
I1
sg50
I0
sg51
I1
sg52
I0
sg53
F31.329999999999998
sg54
I1
sg55
I0
sg56
F-1.25
sg57
F699.79999999999995
sg58
F2.7799999999999998
sg59
F119.55
sg60
I1
sba(iPocket
Pocket
p693
(dp694
g5
F0.25
sg6
F0.62
sg7
F0.17000000000000001
sg8
I0
sg9
F0.60999999999999999
sg10
I46
sg11
F31.030000000000001
sg12
I1
sg13
F20.27
sg14
F932.14999999999998
sg15
F20.719999999999999
sg16
F289.45999999999998
sg17
I0
sg18
S'PEP'
p695
sg20
I0
sg21
I0
sg22
I2
sg23
S'2j2i_unbound.pdb'
p696
sg25
F0.0
sg26
I0
sg27
F0.47999999999999998
sg28
F3.5600000000000001
sg29
I2
sg30
F4.1399999999999997
sg31
I1
sg32
F0.01
sg33
F0.26000000000000001
sg34
I1
sg35
I0
sg36
I0
sg37
F0.28999999999999998
sg38
I1
sg39
F9.2899999999999991
sg40
I-1
sg41
I0
sg42
F0.55000000000000004
sg43
F0.47999999999999998
sg44
F165.44999999999999
sg45
F0.0
sg46
F0.0
sg47
I1
sg48
I0
sg49
I0
sg50
I0
sg51
I0
sg52
I2
sg53
F16.440000000000001
sg54
I0
sg55
I0
sg56
F-1.25
sg57
F699.79999999999995
sg58
F4.0599999999999996
sg59
F124.01000000000001
sg60
I0
sba(iPocket
Pocket
p697
(dp698
g5
F0.22
sg6
F0.62
sg7
F0.5
sg8
I1
sg9
F0.65000000000000002
sg10
I60
sg11
F39.390000000000001
sg12
I1
sg13
F18.199999999999999
sg14
F750.24000000000001
sg15
F22.149999999999999
sg16
F314.89999999999998
sg17
I1
sg18
S'PEP'
p699
sg20
I1
sg21
I0
sg22
I1
sg23
S'2j2i_unbound.pdb'
p700
sg25
F0.0
sg26
I0
sg27
F0.33000000000000002
sg28
F4.0899999999999999
sg29
I6
sg30
F4.4400000000000004
sg31
I0
sg32
F0.02
sg33
F0.20000000000000001
sg34
I0
sg35
I0
sg36
I0
sg37
F0.38
sg38
I2
sg39
F9.9499999999999993
sg40
I-1
sg41
I0
sg42
F0.58999999999999997
sg43
F0.33000000000000002
sg44
F166.65000000000001
sg45
F0.0
sg46
F0.0
sg47
I0
sg48
I0
sg49
I1
sg50
I1
sg51
I0
sg52
I1
sg53
F20.18
sg54
I0
sg55
I0
sg56
F-1.25
sg57
F699.79999999999995
sg58
F4.0099999999999998
sg59
F148.25
sg60
I1
sba(iPocket
Pocket
p701
(dp702
g5
F0.11
sg6
F0.70999999999999996
sg7
F0.92000000000000004
sg8
I3
sg9
F0.69999999999999996
sg10
I60
sg11
F46.149999999999999
sg12
I1
sg13
F9.0
sg14
F572.75999999999999
sg15
F9.2699999999999996
sg16
F359.72000000000003
sg17
I2
sg18
S'PEP'
p703
sg20
I2
sg21
I0
sg22
I1
sg23
S'2j2i_unbound.pdb'
p704
sg25
F5.8799999999999999
sg26
I0
sg27
F0.17000000000000001
sg28
F3.6099999999999999
sg29
I11
sg30
F3.8199999999999998
sg31
I3
sg32
F0.029999999999999999
sg33
F0.44
sg34
I0
sg35
I0
sg36
I0
sg37
F0.38
sg38
I1
sg39
F10.640000000000001
sg40
I0
sg41
I1
sg42
F0.46999999999999997
sg43
F0.17000000000000001
sg44
F156.99000000000001
sg45
F0.0
sg46
F0.0
sg47
I1
sg48
I0
sg49
I1
sg50
I0
sg51
I0
sg52
I1
sg53
F13.779999999999999
sg54
I1
sg55
I0
sg56
F-1.25
sg57
F699.79999999999995
sg58
F4.6100000000000003
sg59
F202.72999999999999
sg60
I0
sba(iPocket
Pocket
p705
(dp706
g5
F0.27000000000000002
sg6
F0.64000000000000001
sg7
F0.41999999999999998
sg8
I0
sg9
F0.59999999999999998
sg10
I65
sg11
F40.0
sg12
I2
sg13
F22.0
sg14
F865.69000000000005
sg15
F20.219999999999999
sg16
F366.66000000000003
sg17
I1
sg18
S'PEP'
p707
sg20
I0
sg21
I0
sg22
I2
sg23
S'2j2i_unbound.pdb'
p708
sg25
F0.0
sg26
I0
sg27
F0.34999999999999998
sg28
F3.54
sg29
I5
sg30
F4.4800000000000004
sg31
I1
sg32
F0.01
sg33
F0.29999999999999999
sg34
I0
sg35
I0
sg36
I0
sg37
F0.40999999999999998
sg38
I3
sg39
F9.0199999999999996
sg40
I-2
sg41
I0
sg42
F0.55000000000000004
sg43
F0.34999999999999998
sg44
F199.25999999999999
sg45
F0.0
sg46
F0.0
sg47
I1
sg48
I0
sg49
I1
sg50
I0
sg51
I0
sg52
I2
sg53
F9.0800000000000001
sg54
I0
sg55
I0
sg56
F-1.25
sg57
F699.79999999999995
sg58
F4.1500000000000004
sg59
F167.40000000000001
sg60
I0
sba(iPocket
Pocket
p709
(dp710
g5
F1.0
sg6
F1.0
sg7
F1.0
sg8
I1
sg9
F1.0
sg10
I156
sg11
F29.41
sg12
I6
sg13
F82.290000000000006
sg14
F1102.3499999999999
sg15
F9.1699999999999999
sg16
F538.24000000000001
sg17
I2
sg18
S'PEP'
p711
sg20
I1
sg21
I1
sg22
I1
sg23
S'2j2i_unbound.pdb'
p712
sg25
F10.59
sg26
I0
sg27
F0.69999999999999996
sg28
F4.0
sg29
I12
sg30
F3.9500000000000002
sg31
I3
sg32
F0.79000000000000004
sg33
F0.20000000000000001
sg34
I0
sg35
I0
sg36
I0
sg37
F1.0
sg38
I3
sg39
F15.73
sg40
I-1
sg41
I2
sg42
F0.46000000000000002
sg43
F0.69999999999999996
sg44
F333.31
sg45
F0.0
sg46
F0.0
sg47
I2
sg48
I0
sg49
I1
sg50
I1
sg51
I1
sg52
I1
sg53
F29.850000000000001
sg54
I0
sg55
I0
sg56
F-1.25
sg57
F699.79999999999995
sg58
F6.4800000000000004
sg59
F204.94
sg60
I0
sbasS'2o9s'
p713
(lp714
(iPocket
Pocket
p715
(dp716
g5
F0.64000000000000001
sg6
F0.78000000000000003
sg7
F1.0
sg8
I2
sg9
F0.76000000000000001
sg10
I38
sg11
F42.859999999999999
sg12
I1
sg13
F14.0
sg14
F710.62
sg15
F20.989999999999998
sg16
F253.78999999999999
sg17
I0
sg18
S'PEP'
p717
sg20
I0
sg21
I0
sg22
I1
sg23
S'2o9s_unbound.pdb'
p718
sg25
F0.0
sg26
I0
sg27
F0.39000000000000001
sg28
F3.2000000000000002
sg29
I5
sg30
F4.8499999999999996
sg31
I1
sg32
F0.12
sg33
F0.68999999999999995
sg34
I0
sg35
I0
sg36
I2
sg37
F1.0
sg38
I0
sg39
F7.4900000000000002
sg40
I0
sg41
I0
sg42
F0.56999999999999995
sg43
F0.39000000000000001
sg44
F146.12
sg45
F0.0
sg46
F0.0
sg47
I2
sg48
I0
sg49
I0
sg50
I0
sg51
I0
sg52
I1
sg53
F10.5
sg54
I0
sg55
I0
sg56
F-1.25
sg57
F736.15999999999997
sg58
F3.4700000000000002
sg59
F107.67
sg60
I0
sbasS'1jwf'
p719
(lp720
(iPocket
Pocket
p721
(dp722
g5
F0.22
sg6
F0.67000000000000004
sg7
F0.85999999999999999
sg8
I0
sg9
F0.90000000000000002
sg10
I37
sg11
F41.670000000000002
sg12
I1
sg13
F6.0
sg14
F173.49000000000001
sg15
F15.41
sg16
F101.01000000000001
sg17
I0
sg18
S'PEP'
p723
sg20
I2
sg21
I0
sg22
I1
sg23
S'1jwf_unbound.pdb'
p724
sg25
F0.0
sg26
I0
sg27
F0.19
sg28
F4.0
sg29
I6
sg30
F3.46
sg31
I0
sg32
F0.080000000000000002
sg33
F0.48999999999999999
sg34
I0
sg35
I0
sg36
I1
sg37
F0.83999999999999997
sg38
I1
sg39
F8.6899999999999995
sg40
I-1
sg41
I2
sg42
F0.44
sg43
F0.19
sg44
F28.98
sg45
F0.0
sg46
F0.0
sg47
I1
sg48
I0
sg49
I0
sg50
I1
sg51
I1
sg52
I1
sg53
F34.170000000000002
sg54
I0
sg55
I0
sg56
F-1.25
sg57
F451.93000000000001
sg58
F3.1800000000000002
sg59
F72.030000000000001
sg60
I0
sba(iPocket
Pocket
p725
(dp726
g5
F0.87
sg6
F0.5
sg7
F0.42999999999999999
sg8
I0
sg9
F0.67000000000000004
sg10
I44
sg11
F32.0
sg12
I1
sg13
F24.0
sg14
F284.49000000000001
sg15
F1.1499999999999999
sg16
F171.97999999999999
sg17
I1
sg18
S'PEP'
p727
sg20
I0
sg21
I1
sg22
I0
sg23
S'1jwf_unbound.pdb'
p728
sg25
F35.210000000000001
sg26
I0
sg27
F0.56999999999999995
sg28
F3.6200000000000001
sg29
I3
sg30
F4.04
sg31
I0
sg32
F0.27000000000000002
sg33
F0.20000000000000001
sg34
I0
sg35
I1
sg36
I0
sg37
F1.0
sg38
I1
sg39
F6.1699999999999999
sg40
I1
sg41
I0
sg42
F0.57999999999999996
sg43
F0.56999999999999995
sg44
F124.52
sg45
F0.93000000000000005
sg46
F0.75
sg47
I1
sg48
I1
sg49
I1
sg50
I0
sg51
I1
sg52
I0
sg53
F27.0
sg54
I1
sg55
I0
sg56
F1.4099999999999999
sg57
F451.93000000000001
sg58
F2.4100000000000001
sg59
F47.450000000000003
sg60
I0
sba(iPocket
Pocket
p729
(dp730
g5
F0.46999999999999997
sg6
F0.65000000000000002
sg7
F0.70999999999999996
sg8
I0
sg9
F0.72999999999999998
sg10
I38
sg11
F39.130000000000003
sg12
I1
sg13
F13.0
sg14
F353.31999999999999
sg15
F17.699999999999999
sg16
F190.59999999999999
sg17
I0
sg18
S'PEP'
p731
sg20
I0
sg21
I0
sg22
I0
sg23
S'1jwf_unbound.pdb'
p732
sg25
F0.0
sg26
I1
sg27
F0.37
sg28
F3.6699999999999999
sg29
I5
sg30
F3.9399999999999999
sg31
I1
sg32
F0.02
sg33
F0.56000000000000005
sg34
I0
sg35
I0
sg36
I0
sg37
F0.85999999999999999
sg38
I2
sg39
F6.8600000000000003
sg40
I-2
sg41
I0
sg42
F0.5
sg43
F0.37
sg44
F108.69
sg45
F0.0
sg46
F0.0
sg47
I0
sg48
I0
sg49
I1
sg50
I0
sg51
I0
sg52
I0
sg53
F-10.33
sg54
I0
sg55
I0
sg56
F-1.25
sg57
F451.93000000000001
sg58
F3.1000000000000001
sg59
F81.920000000000002
sg60
I0
sba(iPocket
Pocket
p733
(dp734
g5
F1.0
sg6
F0.71999999999999997
sg7
F0.42999999999999999
sg8
I0
sg9
F0.87
sg10
I38
sg11
F34.780000000000001
sg12
I0
sg13
F27.449999999999999
sg14
F556.11000000000001
sg15
F10.949999999999999
sg16
F194.19999999999999
sg17
I1
sg18
S'PEP'
p735
sg20
I0
sg21
I0
sg22
I2
sg23
S'1jwf_unbound.pdb'
p736
sg25
F0.0
sg26
I1
sg27
F0.76000000000000001
sg28
F3.3799999999999999
sg29
I3
sg30
F4.2599999999999998
sg31
I0
sg32
F0.23000000000000001
sg33
F0.16
sg34
I0
sg35
I0
sg36
I1
sg37
F0.85999999999999999
sg38
I1
sg39
F8.3399999999999999
sg40
I-2
sg41
I0
sg42
F0.59999999999999998
sg43
F0.76000000000000001
sg44
F131.63
sg45
F0.0
sg46
F0.0
sg47
I0
sg48
I0
sg49
I0
sg50
I1
sg51
I1
sg52
I0
sg53
F3.1200000000000001
sg54
I0
sg55
I0
sg56
F-1.25
sg57
F451.93000000000001
sg58
F3.3999999999999999
sg59
F62.57
sg60
I0
sba(iPocket
Pocket
p737
(dp738
g5
F0.97999999999999998
sg6
F0.70999999999999996
sg7
F0.70999999999999996
sg8
I1
sg9
F0.83999999999999997
sg10
I42
sg11
F33.329999999999998
sg12
I1
sg13
F26.789999999999999
sg14
F655.39999999999998
sg15
F19.710000000000001
sg16
F227.41999999999999
sg17
I0
sg18
S'PEP'
p739
sg20
I1
sg21
I0
sg22
I0
sg23
S'1jwf_unbound.pdb'
p740
sg25
F0.0
sg26
I1
sg27
F0.67000000000000004
sg28
F4.4299999999999997
sg29
I5
sg30
F4.3399999999999999
sg31
I0
sg32
F0.63
sg33
F0.27000000000000002
sg34
I0
sg35
I0
sg36
I0
sg37
F0.94999999999999996
sg38
I0
sg39
F8.0600000000000005
sg40
I0
sg41
I0
sg42
F0.60999999999999999
sg43
F0.67000000000000004
sg44
F161.81999999999999
sg45
F0.0
sg46
F0.0
sg47
I0
sg48
I0
sg49
I1
sg50
I0
sg51
I0
sg52
I0
sg53
F31.57
sg54
I1
sg55
I0
sg56
F-1.25
sg57
F451.93000000000001
sg58
F3.3399999999999999
sg59
F65.599999999999994
sg60
I1
sbasS'1i2h'
p741
(lp742
(iPocket
Pocket
p743
(dp744
g5
F0.46999999999999997
sg6
F0.40999999999999998
sg7
F0.70999999999999996
sg8
I0
sg9
F0.42999999999999999
sg10
I45
sg11
F45.829999999999998
sg12
I0
sg13
F24.0
sg14
F331.95999999999998
sg15
F15.43
sg16
F163.66999999999999
sg17
I0
sg18
S'PEP'
p745
sg20
I1
sg21
I1
sg22
I0
sg23
S'1i2h_unbound.pdb'
p746
sg25
F0.0
sg26
I0
sg27
F0.56000000000000005
sg28
F3.75
sg29
I5
sg30
F4.0700000000000003
sg31
I1
sg32
F0.040000000000000001
sg33
F0.040000000000000001
sg34
I0
sg35
I0
sg36
I1
sg37
F0.52000000000000002
sg38
I0
sg39
F6.2699999999999996
sg40
I1
sg41
I1
sg42
F0.65000000000000002
sg43
F0.56000000000000005
sg44
F120.76000000000001
sg45
F0.0
sg46
F0.0
sg47
I1
sg48
I0
sg49
I0
sg50
I0
sg51
I1
sg52
I1
sg53
F21.120000000000001
sg54
I0
sg55
I0
sg56
F-1.25
sg57
F506.38999999999999
sg58
F2.52
sg59
F42.899999999999999
sg60
I0
sba(iPocket
Pocket
p747
(dp748
g5
F0.11
sg6
F0.76000000000000001
sg7
F0.85999999999999999
sg8
I0
sg9
F0.80000000000000004
sg10
I36
sg11
F51.850000000000001
sg12
I0
sg13
F5.5
sg14
F330.35000000000002
sg15
F20.18
sg16
F242.81999999999999
sg17
I0
sg18
S'PEP'
p749
sg20
I1
sg21
I1
sg22
I1
sg23
S'1i2h_unbound.pdb'
p750
sg25
F0.0
sg26
I0
sg27
F0.22
sg28
F3.3300000000000001
sg29
I6
sg30
F3.6600000000000001
sg31
I1
sg32
F0.02
sg33
F0.13
sg34
I0
sg35
I0
sg36
I3
sg37
F0.41999999999999998
sg38
I0
sg39
F12.58
sg40
I1
sg41
I0
sg42
F0.46999999999999997
sg43
F0.22
sg44
F144.91999999999999
sg45
F0.0
sg46
F0.0
sg47
I0
sg48
I0
sg49
I0
sg50
I0
sg51
I1
sg52
I0
sg53
F8.3300000000000001
sg54
I1
sg55
I0
sg56
F-1.25
sg57
F506.38999999999999
sg58
F4.5499999999999998
sg59
F97.900000000000006
sg60
I0
sba(iPocket
Pocket
p751
(dp752
g5
F1.0
sg6
F1.0
sg7
F1.0
sg8
I1
sg9
F1.0
sg10
I85
sg11
F35.560000000000002
sg12
I1
sg13
F51.280000000000001
sg14
F1005.4
sg15
F19.07
sg16
F390.13
sg17
I2
sg18
S'PEP'
p753
sg20
I1
sg21
I0
sg22
I1
sg23
S'1i2h_unbound.pdb'
p754
sg25
F0.0
sg26
I0
sg27
F0.68000000000000005
sg28
F3.5299999999999998
sg29
I7
sg30
F3.9399999999999999
sg31
I1
sg32
F0.69999999999999996
sg33
F0.27000000000000002
sg34
I0
sg35
I0
sg36
I1
sg37
F1.0
sg38
I2
sg39
F16.010000000000002
sg40
I-2
sg41
I1
sg42
F0.56000000000000005
sg43
F0.68000000000000005
sg44
F211.33000000000001
sg45
F0.0
sg46
F0.0
sg47
I1
sg48
I0
sg49
I0
sg50
I0
sg51
I1
sg52
I1
sg53
F21.329999999999998
sg54
I1
sg55
I0
sg56
F-1.25
sg57
F506.38999999999999
sg58
F5.9500000000000002
sg59
F178.78999999999999
sg60
I0
sbasS'1gy7'
p755
(lp756
(iPocket
Pocket
p757
(dp758
g5
F0.76000000000000001
sg6
F0.59999999999999998
sg7
F0.38
sg8
I0
sg9
F0.51000000000000001
sg10
I45
sg11
F20.0
sg12
I4
sg13
F32.0
sg14
F169.68000000000001
sg15
F14.94
sg16
F89.299999999999997
sg17
I4
sg18
S'PEP'
p759
sg20
I0
sg21
I0
sg22
I0
sg23
S'1gy7_unbound.pdb'
p760
sg25
F0.0
sg26
I1
sg27
F0.78000000000000003
sg28
F4.3600000000000003
sg29
I3
sg30
F3.3100000000000001
sg31
I1
sg32
F0.67000000000000004
sg33
F0.17999999999999999
sg34
I2
sg35
I0
sg36
I0
sg37
F0.48999999999999999
sg38
I0
sg39
F8.2300000000000004
sg40
I-1
sg41
I1
sg42
F0.39000000000000001
sg43
F0.78000000000000003
sg44
F78.5
sg45
F0.0
sg46
F0.0
sg47
I0
sg48
I0
sg49
I0
sg50
I1
sg51
I0
sg52
I0
sg53
F63.0
sg54
I0
sg55
I0
sg56
F-1.25
sg57
F681.97000000000003
sg58
F3.6499999999999999
sg59
F10.800000000000001
sg60
I0
sba(iPocket
Pocket
p761
(dp762
g5
F0.96999999999999997
sg6
F0.83999999999999997
sg7
F0.5
sg8
I0
sg9
F0.72999999999999998
sg10
I66
sg11
F18.600000000000001
sg12
I5
sg13
F40.689999999999998
sg14
F379.38
sg15
F15.779999999999999
sg16
F186.30000000000001
sg17
I4
sg18
S'PEP'
p763
sg20
I0
sg21
I0
sg22
I0
sg23
S'1gy7_unbound.pdb'
p764
sg25
F0.0
sg26
I1
sg27
F0.79000000000000004
sg28
F4.1600000000000001
sg29
I4
sg30
F3.46
sg31
I1
sg32
F0.87
sg33
F0.11
sg34
I3
sg35
I0
sg36
I0
sg37
F0.71999999999999997
sg38
I1
sg39
F12.1
sg40
I-2
sg41
I1
sg42
F0.41999999999999998
sg43
F0.79000000000000004
sg44
F159.41
sg45
F0.0
sg46
F0.0
sg47
I1
sg48
I0
sg49
I0
sg50
I1
sg51
I0
sg52
I1
sg53
F56.630000000000003
sg54
I0
sg55
I0
sg56
F-1.25
sg57
F681.97000000000003
sg58
F5.0800000000000001
sg59
F26.899999999999999
sg60
I0
sba(iPocket
Pocket
p765
(dp766
g5
F0.38
sg6
F0.53000000000000003
sg7
F0.38
sg8
I0
sg9
F0.46999999999999997
sg10
I37
sg11
F20.829999999999998
sg12
I2
sg13
F16.0
sg14
F478.99000000000001
sg15
F18.239999999999998
sg16
F192.97999999999999
sg17
I2
sg18
S'PEP'
p767
sg20
I1
sg21
I2
sg22
I0
sg23
S'1gy7_unbound.pdb'
p768
sg25
F0.0
sg26
I0
sg27
F0.46000000000000002
sg28
F4.25
sg29
I3
sg30
F3.9399999999999999
sg31
I0
sg32
F0.050000000000000003
sg33
F0.17999999999999999
sg34
I1
sg35
I0
sg36
I0
sg37
F0.40000000000000002
sg38
I0
sg39
F7.4800000000000004
sg40
I2
sg41
I0
sg42
F0.53000000000000003
sg43
F0.46000000000000002
sg44
F134.05000000000001
sg45
F0.0
sg46
F0.0
sg47
I0
sg48
I0
sg49
I0
sg50
I0
sg51
I0
sg52
I0
sg53
F40.119999999999997
sg54
I0
sg55
I0
sg56
F-1.25
sg57
F681.97000000000003
sg58
F3.21
sg59
F58.93
sg60
I0
sba(iPocket
Pocket
p769
(dp770
g5
F0.27000000000000002
sg6
F0.67000000000000004
sg7
F1.0
sg8
I1
sg9
F0.57999999999999996
sg10
I49
sg11
F56.670000000000002
sg12
I1
sg13
F11.23
sg14
F242.40000000000001
sg15
F19.210000000000001
sg16
F201.84
sg17
I1
sg18
S'PEP'
p771
sg20
I2
sg21
I1
sg22
I2
sg23
S'1gy7_unbound.pdb'
p772
sg25
F0.0
sg26
I0
sg27
F0.27000000000000002
sg28
F3.3799999999999999
sg29
I8
sg30
F3.3599999999999999
sg31
I1
sg32
F0.040000000000000001
sg33
F0.31
sg34
I1
sg35
I0
sg36
I3
sg37
F0.53000000000000003
sg38
I0
sg39
F9.5299999999999994
sg40
I1
sg41
I0
sg42
F0.35999999999999999
sg43
F0.27000000000000002
sg44
F88.159999999999997
sg45
F0.0
sg46
F0.0
sg47
I0
sg48
I0
sg49
I0
sg50
I0
sg51
I0
sg52
I0
sg53
F7.6900000000000004
sg54
I0
sg55
I0
sg56
F-1.25
sg57
F681.97000000000003
sg58
F4.0599999999999996
sg59
F113.69
sg60
I0
sba(iPocket
Pocket
p773
(dp774
g5
F0.35999999999999999
sg6
F0.52000000000000002
sg7
F0.12
sg8
I0
sg9
F0.45000000000000001
sg10
I39
sg11
F40.740000000000002
sg12
I2
sg13
F15.0
sg14
F385.81
sg15
F1.3600000000000001
sg16
F211.33000000000001
sg17
I1
sg18
S'PEP'
p775
sg20
I0
sg21
I0
sg22
I0
sg23
S'1gy7_unbound.pdb'
p776
sg25
F49.520000000000003
sg26
I0
sg27
F0.40999999999999998
sg28
F4.5999999999999996
sg29
I1
sg30
F3.9399999999999999
sg31
I0
sg32
F0.32000000000000001
sg33
F0.22
sg34
I0
sg35
I1
sg36
I1
sg37
F0.41999999999999998
sg38
I0
sg39
F7.1299999999999999
sg40
I0
sg41
I0
sg42
F0.54000000000000004
sg43
F0.40999999999999998
sg44
F113.34
sg45
F1.0
sg46
F1.0
sg47
I0
sg48
I1
sg49
I0
sg50
I3
sg51
I1
sg52
I1
sg53
F77.200000000000003
sg54
I1
sg55
I0
sg56
F2.0
sg57
F681.97000000000003
sg58
F3.1800000000000002
sg59
F97.989999999999995
sg60
I0
sba(iPocket
Pocket
p777
(dp778
g5
F0.68000000000000005
sg6
F0.78000000000000003
sg7
F0.12
sg8
I0
sg9
F0.63
sg10
I44
sg11
F30.0
sg12
I3
sg13
F28.399999999999999
sg14
F420.54000000000002
sg15
F21.359999999999999
sg16
F299.93000000000001
sg17
I3
sg18
S'PEP'
p779
sg20
I0
sg21
I1
sg22
I0
sg23
S'1gy7_unbound.pdb'
p780
sg25
F0.0
sg26
I0
sg27
F0.68000000000000005
sg28
F4.2699999999999996
sg29
I1
sg30
F3.8799999999999999
sg31
I0
sg32
F0.40000000000000002
sg33
F0.45000000000000001
sg34
I0
sg35
I0
sg36
I0
sg37
F0.47999999999999998
sg38
I0
sg39
F10.32
sg40
I1
sg41
I0
sg42
F0.47999999999999998
sg43
F0.68000000000000005
sg44
F190.81
sg45
F0.0
sg46
F0.0
sg47
I1
sg48
I0
sg49
I0
sg50
I1
sg51
I0
sg52
I2
sg53
F60.82
sg54
I0
sg55
I0
sg56
F-1.25
sg57
F681.97000000000003
sg58
F4.75
sg59
F109.12
sg60
I0
sba(iPocket
Pocket
p781
(dp782
g5
F0.34999999999999998
sg6
F0.71999999999999997
sg7
F0.75
sg8
I0
sg9
F0.72999999999999998
sg10
I48
sg11
F50.0
sg12
I1
sg13
F14.82
sg14
F849.63
sg15
F29.140000000000001
sg16
F303.61000000000001
sg17
I0
sg18
S'PEP'
p783
sg20
I0
sg21
I0
sg22
I0
sg23
S'1gy7_unbound.pdb'
p784
sg25
F0.0
sg26
I0
sg27
F0.34999999999999998
sg28
F4.5599999999999996
sg29
I6
sg30
F4.0199999999999996
sg31
I1
sg32
F0.059999999999999998
sg33
F0.56000000000000005
sg34
I0
sg35
I0
sg36
I1
sg37
F0.52000000000000002
sg38
I2
sg39
F12.1
sg40
I-1
sg41
I1
sg42
F0.54000000000000004
sg43
F0.34999999999999998
sg44
F103.86
sg45
F0.0
sg46
F0.0
sg47
I0
sg48
I0
sg49
I1
sg50
I2
sg51
I0
sg52
I0
sg53
F31.0
sg54
I0
sg55
I0
sg56
F-1.25
sg57
F681.97000000000003
sg58
F4.3700000000000001
sg59
F199.75999999999999
sg60
I0
sba(iPocket
Pocket
p785
(dp786
g5
F0.32000000000000001
sg6
F0.88
sg7
F0.62
sg8
I0
sg9
F0.79000000000000004
sg10
I54
sg11
F50.0
sg12
I1
sg13
F13.58
sg14
F655.92999999999995
sg15
F18.719999999999999
sg16
F312.56
sg17
I0
sg18
S'PEP'
p787
sg20
I0
sg21
I1
sg22
I2
sg23
S'1gy7_unbound.pdb'
p788
sg25
F0.0
sg26
I1
sg27
F0.34999999999999998
sg28
F3.9199999999999999
sg29
I5
sg30
F3.7999999999999998
sg31
I0
sg32
F0.029999999999999999
sg33
F0.23999999999999999
sg34
I1
sg35
I0
sg36
I3
sg37
F0.58999999999999997
sg38
I0
sg39
F13.289999999999999
sg40
I0
sg41
I0
sg42
F0.54000000000000004
sg43
F0.34999999999999998
sg44
F66.420000000000002
sg45
F0.0
sg46
F0.0
sg47
I1
sg48
I0
sg49
I0
sg50
I2
sg51
I0
sg52
I0
sg53
F22.329999999999998
sg54
I0
sg55
I0
sg56
F-1.25
sg57
F681.97000000000003
sg58
F5.3200000000000003
sg59
F246.13999999999999
sg60
I0
sba(iPocket
Pocket
p789
(dp790
g5
F0.40000000000000002
sg6
F1.0
sg7
F0.75
sg8
I0
sg9
F1.0
sg10
I91
sg11
F47.060000000000002
sg12
I4
sg13
F16.829999999999998
sg14
F907.83000000000004
sg15
F2.6800000000000002
sg16
F425.07999999999998
sg17
I1
sg18
S'PEP'
p791
sg20
I0
sg21
I1
sg22
I1
sg23
S'1gy7_unbound.pdb'
p792
sg25
F54.289999999999999
sg26
I0
sg27
F0.26000000000000001
sg28
F4.2800000000000002
sg29
I6
sg30
F3.6299999999999999
sg31
I2
sg32
F0.16
sg33
F0.31
sg34
I0
sg35
I1
sg36
I2
sg37
F1.0
sg38
I1
sg39
F17.059999999999999
sg40
I0
sg41
I0
sg42
F0.47999999999999998
sg43
F0.26000000000000001
sg44
F160.12
sg45
F0.37
sg46
F0.72999999999999998
sg47
I0
sg48
I1
sg49
I0
sg50
I3
sg51
I1
sg52
I1
sg53
F44.609999999999999
sg54
I1
sg55
I0
sg56
F0.67000000000000004
sg57
F681.97000000000003
sg58
F6.0700000000000003
sg59
F264.95999999999998
sg60
I0
sba(iPocket
Pocket
p793
(dp794
g5
F1.0
sg6
F1.0
sg7
F0.5
sg8
I0
sg9
F0.84999999999999998
sg10
I83
sg11
F31.25
sg12
I0
sg13
F42.07
sg14
F1096.5
sg15
F8.4800000000000004
sg16
F471.63
sg17
I1
sg18
S'PEP'
p795
sg20
I1
sg21
I0
sg22
I0
sg23
S'1gy7_unbound.pdb'
p796
sg25
F11.43
sg26
I1
sg27
F0.65000000000000002
sg28
F3.27
sg29
I4
sg30
F4.4199999999999999
sg31
I1
sg32
F0.42999999999999999
sg33
F0.11
sg34
I2
sg35
I0
sg36
I0
sg37
F0.91000000000000003
sg38
I1
sg39
F14.289999999999999
sg40
I-2
sg41
I0
sg42
F0.59999999999999998
sg43
F0.65000000000000002
sg44
F333.31
sg45
F0.0
sg46
F0.0
sg47
I1
sg48
I0
sg49
I0
sg50
I0
sg51
I1
sg52
I2
sg53
F24.640000000000001
sg54
I0
sg55
I0
sg56
F-1.25
sg57
F681.97000000000003
sg58
F6.0499999999999998
sg59
F138.33000000000001
sg60
I0
sbasS'1jd4'
p797
(lp798
(iPocket
Pocket
p799
(dp800
g5
F0.55000000000000004
sg6
F0.58999999999999997
sg7
F0.5
sg8
I1
sg9
F0.70999999999999996
sg10
I40
sg11
F43.479999999999997
sg12
I1
sg13
F18.0
sg14
F401.93000000000001
sg15
F0.93000000000000005
sg16
F208.97999999999999
sg17
I0
sg18
S'PEP'
p801
sg20
I0
sg21
I0
sg22
I2
sg23
S'1jd4_unbound.pdb'
p802
sg25
F28.75
sg26
I0
sg27
F0.46999999999999997
sg28
F4.4299999999999997
sg29
I3
sg30
F3.7000000000000002
sg31
I0
sg32
F0.050000000000000003
sg33
F0.050000000000000003
sg34
I0
sg35
I1
sg36
I1
sg37
F0.68000000000000005
sg38
I0
sg39
F7.0499999999999998
sg40
I0
sg41
I1
sg42
F0.53000000000000003
sg43
F0.46999999999999997
sg44
F93.700000000000003
sg45
F1.0
sg46
F1.0
sg47
I0
sg48
I1
sg49
I0
sg50
I0
sg51
I0
sg52
I0
sg53
F29.140000000000001
sg54
I1
sg55
I0
sg56
F2.0
sg57
F706.13
sg58
F2.6099999999999999
sg59
F115.28
sg60
I0
sba(iPocket
Pocket
p803
(dp804
g5
F0.20999999999999999
sg6
F0.97999999999999998
sg7
F0.67000000000000004
sg8
I0
sg9
F1.0
sg10
I47
sg11
F44.829999999999998
sg12
I0
sg13
F6.75
sg14
F474.25999999999999
sg15
F8.1400000000000006
sg16
F237.80000000000001
sg17
I2
sg18
S'PEP'
p805
sg20
I1
sg21
I1
sg22
I1
sg23
S'1jd4_unbound.pdb'
p806
sg25
F2.5
sg26
I0
sg27
F0.17000000000000001
sg28
F4.5599999999999996
sg29
I4
sg30
F3.8599999999999999
sg31
I0
sg32
F0.02
sg33
F0.34999999999999998
sg34
I1
sg35
I0
sg36
I0
sg37
F0.81000000000000005
sg38
I0
sg39
F10.34
sg40
I3
sg41
I0
sg42
F0.53000000000000003
sg43
F0.17000000000000001
sg44
F96.609999999999999
sg45
F0.0
sg46
F0.0
sg47
I0
sg48
I0
sg49
I0
sg50
I1
sg51
I0
sg52
I0
sg53
F19.109999999999999
sg54
I0
sg55
I2
sg56
F-1.25
sg57
F706.13
sg58
F4.2800000000000002
sg59
F141.19
sg60
I0
sba(iPocket
Pocket
p807
(dp808
g5
F1.0
sg6
F0.93000000000000005
sg7
F0.82999999999999996
sg8
I1
sg9
F0.81000000000000005
sg10
I58
sg11
F25.0
sg12
I1
sg13
F32.909999999999997
sg14
F515.46000000000004
sg15
F1.3100000000000001
sg16
F259.17000000000002
sg17
I0
sg18
S'PEP'
p809
sg20
I0
sg21
I0
sg22
I0
sg23
S'1jd4_unbound.pdb'
p810
sg25
F40.0
sg26
I0
sg27
F0.59999999999999998
sg28
F5.0
sg29
I5
sg30
F4.1900000000000004
sg31
I2
sg32
F0.87
sg33
F0.17000000000000001
sg34
I0
sg35
I1
sg36
I0
sg37
F1.0
sg38
I0
sg39
F8.1999999999999993
sg40
I0
sg41
I0
sg42
F0.56000000000000005
sg43
F0.59999999999999998
sg44
F149.75
sg45
F1.0
sg46
F1.0
sg47
I0
sg48
I1
sg49
I0
sg50
I1
sg51
I0
sg52
I0
sg53
F44.5
sg54
I1
sg55
I0
sg56
F2.0
sg57
F706.13
sg58
F4.0700000000000003
sg59
F109.42
sg60
I2
sba(iPocket
Pocket
p811
(dp812
g5
F0.48999999999999999
sg6
F0.82999999999999996
sg7
F0.82999999999999996
sg8
I0
sg9
F0.96999999999999997
sg10
I40
sg11
F39.130000000000003
sg12
I1
sg13
F16.0
sg14
F534.92999999999995
sg15
F9.0299999999999994
sg16
F303.43000000000001
sg17
I0
sg18
S'PEP'
p813
sg20
I0
sg21
I0
sg22
I0
sg23
S'1jd4_unbound.pdb'
p814
sg25
F3.75
sg26
I0
sg27
F0.42999999999999999
sg28
F5.3300000000000001
sg29
I5
sg30
F3.8799999999999999
sg31
I0
sg32
F0.46000000000000002
sg33
F0.46000000000000002
sg34
I0
sg35
I0
sg36
I0
sg37
F0.68000000000000005
sg38
I1
sg39
F10.039999999999999
sg40
I0
sg41
I2
sg42
F0.45000000000000001
sg43
F0.42999999999999999
sg44
F160.61000000000001
sg45
F0.0
sg46
F0.0
sg47
I0
sg48
I0
sg49
I1
sg50
I1
sg51
I1
sg52
I1
sg53
F58.219999999999999
sg54
I0
sg55
I0
sg56
F-1.25
sg57
F706.13
sg58
F3.6200000000000001
sg59
F142.81
sg60
I1
sbasS'2am9'
p815
(lp816
(iPocket
Pocket
p817
(dp818
g5
F0.33000000000000002
sg6
F0.5
sg7
F0.25
sg8
I0
sg9
F0.46999999999999997
sg10
I41
sg11
F32.0
sg12
I2
sg13
F24.0
sg14
F425.92000000000002
sg15
F22.539999999999999
sg16
F226.38
sg17
I1
sg18
S'PEP'
p819
sg20
I0
sg21
I0
sg22
I0
sg23
S'2am9_unbound.pdb'
p820
sg25
F0.0
sg26
I0
sg27
F0.63
sg28
F4.6200000000000001
sg29
I3
sg30
F3.7599999999999998
sg31
I0
sg32
F0.070000000000000007
sg33
F0.14999999999999999
sg34
I0
sg35
I0
sg36
I0
sg37
F0.22
sg38
I2
sg39
F9.1300000000000008
sg40
I-2
sg41
I0
sg42
F0.55000000000000004
sg43
F0.63
sg44
F108.69
sg45
F0.0
sg46
F0.0
sg47
I0
sg48
I0
sg49
I0
sg50
I1
sg51
I0
sg52
I1
sg53
F46.75
sg54
I0
sg55
I0
sg56
F-1.25
sg57
F818.70000000000005
sg58
F3.9199999999999999
sg59
F117.7
sg60
I1
sba(iPocket
Pocket
p821
(dp822
g5
F0.5
sg6
F0.44
sg7
F0.33000000000000002
sg8
I0
sg9
F0.41999999999999998
sg10
I40
sg11
F23.079999999999998
sg12
I1
sg13
F35.950000000000003
sg14
F454.75999999999999
sg15
F0.38
sg16
F239.37
sg17
I0
sg18
S'PEP'
p823
sg20
I0
sg21
I0
sg22
I0
sg23
S'2am9_unbound.pdb'
p824
sg25
F40.619999999999997
sg26
I0
sg27
F0.93000000000000005
sg28
F5.0
sg29
I4
sg30
F3.96
sg31
I0
sg32
F0.25
sg33
F0.22
sg34
I0
sg35
I1
sg36
I0
sg37
F0.20999999999999999
sg38
I1
sg39
F8.1899999999999995
sg40
I0
sg41
I2
sg42
F0.56000000000000005
sg43
F0.93000000000000005
sg44
F214.44
sg45
F0.88
sg46
F1.0
sg47
I1
sg48
I1
sg49
I1
sg50
I1
sg51
I0
sg52
I0
sg53
F60.0
sg54
I2
sg55
I0
sg56
F1.8400000000000001
sg57
F818.70000000000005
sg58
F3.48
sg59
F24.93
sg60
I0
sba(iPocket
Pocket
p825
(dp826
g5
F0.37
sg6
F0.42999999999999999
sg7
F0.17000000000000001
sg8
I0
sg9
F0.51000000000000001
sg10
I41
sg11
F38.460000000000001
sg12
I1
sg13
F26.789999999999999
sg14
F633.19000000000005
sg15
F25.640000000000001
sg16
F248.21000000000001
sg17
I1
sg18
S'PEP'
p827
sg20
I0
sg21
I0
sg22
I1
sg23
S'2am9_unbound.pdb'
p828
sg25
F0.0
sg26
I0
sg27
F0.68000000000000005
sg28
F3.7799999999999998
sg29
I2
sg30
F4.0499999999999998
sg31
I0
sg32
F0.01
sg33
F0.42999999999999999
sg34
I0
sg35
I0
sg36
I0
sg37
F0.22
sg38
I1
sg39
F10.01
sg40
I0
sg41
I0
sg42
F0.48999999999999999
sg43
F0.68000000000000005
sg44
F192.91999999999999
sg45
F0.0
sg46
F0.0
sg47
I2
sg48
I0
sg49
I0
sg50
I1
sg51
I0
sg52
I1
sg53
F23.0
sg54
I0
sg55
I1
sg56
F-1.25
sg57
F818.70000000000005
sg58
F3.3799999999999999
sg59
F55.289999999999999
sg60
I0
sba(iPocket
Pocket
p829
(dp830
g5
F1.0
sg6
F1.0
sg7
F1.0
sg8
I2
sg9
F1.0
sg10
I186
sg11
F25.0
sg12
I6
sg13
F72.480000000000004
sg14
F897.13
sg15
F12.77
sg16
F378.30000000000001
sg17
I3
sg18
S'PEP'
p831
sg20
I0
sg21
I1
sg22
I1
sg23
S'2am9_unbound.pdb'
p832
sg25
F0.0
sg26
I1
sg27
F0.76000000000000001
sg28
F4.8700000000000001
sg29
I12
sg30
F3.75
sg31
I0
sg32
F0.96999999999999997
sg33
F0.050000000000000003
sg34
I0
sg35
I0
sg36
I1
sg37
F1.0
sg38
I1
sg39
F20.73
sg40
I0
sg41
I3
sg42
F0.51000000000000001
sg43
F0.76000000000000001
sg44
F263.80000000000001
sg45
F0.0
sg46
F0.0
sg47
I0
sg48
I0
sg49
I1
sg50
I1
sg51
I1
sg52
I1
sg53
F58.100000000000001
sg54
I6
sg55
I0
sg56
F-1.25
sg57
F818.70000000000005
sg58
F7.8799999999999999
sg59
F114.5
sg60
I2
sba(iPocket
Pocket
p833
(dp834
g5
F0.31
sg6
F0.84999999999999998
sg7
F0.41999999999999998
sg8
I0
sg9
F0.78000000000000003
sg10
I78
sg11
F35.420000000000002
sg12
I3
sg13
F22.789999999999999
sg14
F1217.5799999999999
sg15
F28.0
sg16
F403.11000000000001
sg17
I0
sg18
S'PEP'
p835
sg20
I1
sg21
I0
sg22
I1
sg23
S'2am9_unbound.pdb'
p836
sg25
F0.0
sg26
I1
sg27
F0.55000000000000004
sg28
F4.1699999999999999
sg29
I5
sg30
F3.9500000000000002
sg31
I0
sg32
F0.040000000000000001
sg33
F0.19
sg34
I1
sg35
I0
sg36
I0
sg37
F0.41999999999999998
sg38
I1
sg39
F16.030000000000001
sg40
I-1
sg41
I1
sg42
F0.56999999999999995
sg43
F0.55000000000000004
sg44
F222.19999999999999
sg45
F0.0
sg46
F0.0
sg47
I1
sg48
I0
sg49
I1
sg50
I1
sg51
I0
sg52
I0
sg53
F36.75
sg54
I0
sg55
I0
sg56
F-1.25
sg57
F818.70000000000005
sg58
F6.7400000000000002
sg59
F180.90000000000001
sg60
I0
sbasS'2h14'
p837
(lp838
(iPocket
Pocket
p839
(dp840
g5
F0.60999999999999999
sg6
F0.69999999999999996
sg7
F0.5
sg8
I1
sg9
F0.75
sg10
I50
sg11
F40.619999999999997
sg12
I2
sg13
F20.43
sg14
F135.63
sg15
F8.6999999999999993
sg16
F48.770000000000003
sg17
I0
sg18
S'PEP'
p841
sg20
I0
sg21
I0
sg22
I0
sg23
S'2h14_unbound.pdb'
p842
sg25
F0.0
sg26
I1
sg27
F0.56000000000000005
sg28
F3.8599999999999999
sg29
I8
sg30
F3.3100000000000001
sg31
I0
sg32
F0.070000000000000007
sg33
F0.070000000000000007
sg34
I0
sg35
I0
sg36
I1
sg37
F0.52000000000000002
sg38
I1
sg39
F9.2799999999999994
sg40
I0
sg41
I1
sg42
F0.44
sg43
F0.56000000000000005
sg44
F32.609999999999999
sg45
F0.0
sg46
F0.0
sg47
I1
sg48
I0
sg49
I2
sg50
I0
sg51
I3
sg52
I0
sg53
F29.57
sg54
I0
sg55
I0
sg56
F-1.25
sg57
F460.75999999999999
sg58
F3.7400000000000002
sg59
F16.16
sg60
I1
sba(iPocket
Pocket
p843
(dp844
g5
F0.39000000000000001
sg6
F0.55000000000000004
sg7
F0.5
sg8
I1
sg9
F0.58999999999999997
sg10
I40
sg11
F41.670000000000002
sg12
I1
sg13
F13.0
sg14
F198.91
sg15
F15.48
sg16
F71.209999999999994
sg17
I0
sg18
S'PEP'
p845
sg20
I0
sg21
I0
sg22
I0
sg23
S'2h14_unbound.pdb'
p846
sg25
F0.0
sg26
I0
sg27
F0.34999999999999998
sg28
F4.3300000000000001
sg29
I8
sg30
F3.5
sg31
I2
sg32
F0.029999999999999999
sg33
F0.26000000000000001
sg34
I0
sg35
I0
sg36
I1
sg37
F0.40999999999999998
sg38
I0
sg39
F7.1500000000000004
sg40
I2
sg41
I1
sg42
F0.42999999999999999
sg43
F0.34999999999999998
sg44
F39.850000000000001
sg45
F0.0
sg46
F0.0
sg47
I1
sg48
I0
sg49
I1
sg50
I0
sg51
I1
sg52
I1
sg53
F26.25
sg54
I0
sg55
I1
sg56
F-1.25
sg57
F460.75999999999999
sg58
F2.9399999999999999
sg59
F31.359999999999999
sg60
I1
sba(iPocket
Pocket
p847
(dp848
g5
F0.16
sg6
F0.75
sg7
F0.31
sg8
I1
sg9
F0.79000000000000004
sg10
I39
sg11
F44.439999999999998
sg12
I0
sg13
F5.5
sg14
F524.89999999999998
sg15
F16.52
sg16
F202.47
sg17
I3
sg18
S'PEP'
p849
sg20
I1
sg21
I1
sg22
I1
sg23
S'2h14_unbound.pdb'
p850
sg25
F0.0
sg26
I1
sg27
F0.20999999999999999
sg28
F3.8199999999999998
sg29
I5
sg30
F3.79
sg31
I0
sg32
F0.01
sg33
F0.29999999999999999
sg34
I0
sg35
I0
sg36
I0
sg37
F0.40000000000000002
sg38
I0
sg39
F9.9100000000000001
sg40
I1
sg41
I0
sg42
F0.55000000000000004
sg43
F0.20999999999999999
sg44
F105.06
sg45
F0.0
sg46
F0.0
sg47
I0
sg48
I0
sg49
I1
sg50
I0
sg51
I0
sg52
I2
sg53
F17.09
sg54
I0
sg55
I0
sg56
F-1.25
sg57
F460.75999999999999
sg58
F3.9700000000000002
sg59
F97.400000000000006
sg60
I0
sba(iPocket
Pocket
p851
(dp852
g5
F1.0
sg6
F0.68000000000000005
sg7
F0.38
sg8
I0
sg9
F0.66000000000000003
sg10
I54
sg11
F31.030000000000001
sg12
I2
sg13
F33.710000000000001
sg14
F414.35000000000002
sg15
F20.859999999999999
sg16
F251.75
sg17
I1
sg18
S'PEP'
p853
sg20
I2
sg21
I1
sg22
I0
sg23
S'2h14_unbound.pdb'
p854
sg25
F0.0
sg26
I0
sg27
F0.65000000000000002
sg28
F4.75
sg29
I6
sg30
F3.8100000000000001
sg31
I0
sg32
F0.81999999999999995
sg33
F0.26000000000000001
sg34
I1
sg35
I0
sg36
I0
sg37
F0.56000000000000005
sg38
I0
sg39
F8.1500000000000004
sg40
I2
sg41
I1
sg42
F0.52000000000000002
sg43
F0.65000000000000002
sg44
F130.41999999999999
sg45
F0.0
sg46
F0.0
sg47
I0
sg48
I0
sg49
I1
sg50
I1
sg51
I0
sg52
I1
sg53
F52.670000000000002
sg54
I0
sg55
I0
sg56
F-1.25
sg57
F460.75999999999999
sg58
F3.6099999999999999
sg59
F121.33
sg60
I1
sba(iPocket
Pocket
p855
(dp856
g5
F0.85999999999999999
sg6
F0.77000000000000002
sg7
F0.38
sg8
I0
sg9
F0.78000000000000003
sg10
I60
sg11
F28.57
sg12
I1
sg13
F28.84
sg14
F794.35000000000002
sg15
F1.28
sg16
F284.16000000000003
sg17
I2
sg18
S'PEP'
p857
sg20
I3
sg21
I0
sg22
I0
sg23
S'2h14_unbound.pdb'
p858
sg25
F47.890000000000001
sg26
I0
sg27
F0.52000000000000002
sg28
F3.5
sg29
I6
sg30
F4.1600000000000001
sg31
I0
sg32
F0.34000000000000002
sg33
F0.17000000000000001
sg34
I2
sg35
I1
sg36
I0
sg37
F0.63
sg38
I0
sg39
F9.7599999999999998
sg40
I2
sg41
I1
sg42
F0.56000000000000005
sg43
F0.52000000000000002
sg44
F194.09
sg45
F0.78000000000000003
sg46
F1.0
sg47
I1
sg48
I1
sg49
I1
sg50
I0
sg51
I2
sg52
I0
sg53
F36.210000000000001
sg54
I0
sg55
I1
sg56
F1.73
sg57
F460.75999999999999
sg58
F4.0700000000000003
sg59
F90.069999999999993
sg60
I0
sba(iPocket
Pocket
p859
(dp860
g5
F0.73999999999999999
sg6
F1.0
sg7
F1.0
sg8
I0
sg9
F1.0
sg10
I95
sg11
F46.149999999999999
sg12
I0
sg13
F24.789999999999999
sg14
F566.84000000000003
sg15
F7.7400000000000002
sg16
F312.37
sg17
I4
sg18
S'PEP'
p861
sg20
I2
sg21
I2
sg22
I0
sg23
S'2h14_unbound.pdb'
p862
sg25
F15.49
sg26
I1
sg27
F0.28999999999999998
sg28
F4.5199999999999996
sg29
I16
sg30
F3.6699999999999999
sg31
I1
sg32
F0.28000000000000003
sg33
F0.13
sg34
I0
sg35
I0
sg36
I1
sg37
F1.0
sg38
I0
sg39
F12.76
sg40
I7
sg41
I3
sg42
F0.48999999999999999
sg43
F0.28999999999999998
sg44
F124.39
sg45
F0.02
sg46
F0.089999999999999997
sg47
I0
sg48
I0
sg49
I2
sg50
I0
sg51
I3
sg52
I0
sg53
F20.350000000000001
sg54
I0
sg55
I4
sg56
F-1.04
sg57
F460.75999999999999
sg58
F5.2800000000000002
sg59
F187.97999999999999
sg60
I0
sbasS'1h1r'
p863
(lp864
(iPocket
Pocket
p865
(dp866
g5
F0.19
sg6
F0.54000000000000004
sg7
F0.33000000000000002
sg8
I1
sg9
F0.44
sg10
I37
sg11
F46.149999999999999
sg12
I0
sg13
F12.0
sg14
F166.68000000000001
sg15
F27.82
sg16
F78.799999999999997
sg17
I0
sg18
S'PEP'
p867
sg20
I0
sg21
I0
sg22
I1
sg23
S'1h1r_unbound.pdb'
p868
sg25
F0.0
sg26
I1
sg27
F0.34999999999999998
sg28
F3.7000000000000002
sg29
I6
sg30
F3.21
sg31
I0
sg32
F0.01
sg33
F0.12
sg34
I2
sg35
I0
sg36
I1
sg37
F0.23000000000000001
sg38
I1
sg39
F7.5800000000000001
sg40
I0
sg41
I0
sg42
F0.34999999999999998
sg43
F0.34999999999999998
sg44
F51.93
sg45
F0.0
sg46
F0.0
sg47
I1
sg48
I0
sg49
I1
sg50
I0
sg51
I0
sg52
I0
sg53
F1.7
sg54
I0
sg55
I1
sg56
F-1.25
sg57
F1115.4100000000001
sg58
F3.8300000000000001
sg59
F26.870000000000001
sg60
I0
sba(iPocket
Pocket
p869
(dp870
g5
F0.20999999999999999
sg6
F0.46000000000000002
sg7
F0.28000000000000003
sg8
I1
sg9
F0.42999999999999999
sg10
I40
sg11
F42.310000000000002
sg12
I1
sg13
F13.0
sg14
F310.69
sg15
F14.880000000000001
sg16
F140.65000000000001
sg17
I0
sg18
S'PEP'
p871
sg20
I0
sg21
I1
sg22
I0
sg23
S'1h1r_unbound.pdb'
p872
sg25
F0.0
sg26
I0
sg27
F0.34999999999999998
sg28
F4.5599999999999996
sg29
I5
sg30
F3.6899999999999999
sg31
I1
sg32
F0.040000000000000001
sg33
F0.27000000000000002
sg34
I1
sg35
I0
sg36
I0
sg37
F0.25
sg38
I0
sg39
F7.3600000000000003
sg40
I2
sg41
I1
sg42
F0.52000000000000002
sg43
F0.34999999999999998
sg44
F74.870000000000005
sg45
F0.0
sg46
F0.0
sg47
I0
sg48
I0
sg49
I1
sg50
I0
sg51
I1
sg52
I0
sg53
F39.670000000000002
sg54
I1
sg55
I0
sg56
F-1.25
sg57
F1115.4100000000001
sg58
F3.2400000000000002
sg59
F65.780000000000001
sg60
I0
sba(iPocket
Pocket
p873
(dp874
g5
F0.23999999999999999
sg6
F0.55000000000000004
sg7
F0.28000000000000003
sg8
I0
sg9
F0.57999999999999996
sg10
I43
sg11
F37.039999999999999
sg12
I1
sg13
F15.289999999999999
sg14
F225.36000000000001
sg15
F34.299999999999997
sg16
F162.53
sg17
I1
sg18
S'PEP'
p875
sg20
I1
sg21
I1
sg22
I0
sg23
S'1h1r_unbound.pdb'
p876
sg25
F0.0
sg26
I1
sg27
F0.40000000000000002
sg28
F4.6900000000000004
sg29
I5
sg30
F3.3700000000000001
sg31
I0
sg32
F0.10000000000000001
sg33
F0.29999999999999999
sg34
I0
sg35
I0
sg36
I1
sg37
F0.27000000000000002
sg38
I0
sg39
F10.32
sg40
I0
sg41
I1
sg42
F0.40999999999999998
sg43
F0.40000000000000002
sg44
F86.950000000000003
sg45
F0.0
sg46
F0.0
sg47
I0
sg48
I0
sg49
I0
sg50
I3
sg51
I1
sg52
I2
sg53
F52.920000000000002
sg54
I0
sg55
I0
sg56
F-1.25
sg57
F1115.4100000000001
sg58
F3.8999999999999999
sg59
F75.579999999999998
sg60
I0
sba(iPocket
Pocket
p877
(dp878
g5
F0.37
sg6
F0.72999999999999998
sg7
F0.33000000000000002
sg8
I1
sg9
F0.60999999999999999
sg10
I106
sg11
F42.109999999999999
sg12
I2
sg13
F23.609999999999999
sg14
F406.22000000000003
sg15
F24.739999999999998
sg16
F186.22999999999999
sg17
I2
sg18
S'PEP'
p879
sg20
I0
sg21
I1
sg22
I3
sg23
S'1h1r_unbound.pdb'
p880
sg25
F0.0
sg26
I0
sg27
F0.34000000000000002
sg28
F3.8599999999999999
sg29
I6
sg30
F3.4700000000000002
sg31
I0
sg32
F0.029999999999999999
sg33
F0.089999999999999997
sg34
I1
sg35
I0
sg36
I1
sg37
F0.68000000000000005
sg38
I2
sg39
F10.890000000000001
sg40
I-1
sg41
I1
sg42
F0.44
sg43
F0.34000000000000002
sg44
F85.739999999999995
sg45
F0.0
sg46
F0.0
sg47
I1
sg48
I0
sg49
I0
sg50
I2
sg51
I3
sg52
I2
sg53
F30.550000000000001
sg54
I0
sg55
I0
sg56
F-1.25
sg57
F1115.4100000000001
sg58
F5.1500000000000004
sg59
F100.48999999999999
sg60
I0
sba(iPocket
Pocket
p881
(dp882
g5
F0.63
sg6
F0.68000000000000005
sg7
F0.60999999999999999
sg8
I0
sg9
F0.70999999999999996
sg10
I95
sg11
F35.850000000000001
sg12
I3
sg13
F40.0
sg14
F455.49000000000001
sg15
F18.469999999999999
sg16
F190.94
sg17
I0
sg18
S'PEP'
p883
sg20
I1
sg21
I1
sg22
I1
sg23
S'1h1r_unbound.pdb'
p884
sg25
F0.0
sg26
I1
sg27
F0.46000000000000002
sg28
F4.3200000000000003
sg29
I11
sg30
F3.7599999999999998
sg31
I2
sg32
F0.11
sg33
F0.12
sg34
I2
sg35
I0
sg36
I1
sg37
F0.60999999999999999
sg38
I1
sg39
F12.859999999999999
sg40
I1
sg41
I2
sg42
F0.52000000000000002
sg43
F0.46000000000000002
sg44
F131.63
sg45
F0.0
sg46
F0.0
sg47
I1
sg48
I0
sg49
I1
sg50
I0
sg51
I1
sg52
I3
sg53
F31.68
sg54
I0
sg55
I1
sg56
F-1.25
sg57
F1115.4100000000001
sg58
F4.7800000000000002
sg59
F59.310000000000002
sg60
I0
sba(iPocket
Pocket
p885
(dp886
g5
F0.58999999999999997
sg6
F0.47999999999999998
sg7
F0.059999999999999998
sg8
I0
sg9
F0.48999999999999999
sg10
I47
sg11
F22.579999999999998
sg12
I2
sg13
F37.149999999999999
sg14
F355.62
sg15
F1.45
sg16
F197.47
sg17
I0
sg18
S'PEP'
p887
sg20
I0
sg21
I0
sg22
I1
sg23
S'1h1r_unbound.pdb'
p888
sg25
F31.629999999999999
sg26
I0
sg27
F0.84999999999999998
sg28
F4.5700000000000003
sg29
I1
sg30
F3.9100000000000001
sg31
I0
sg32
F0.23999999999999999
sg33
F0.20000000000000001
sg34
I0
sg35
I1
sg36
I0
sg37
F0.29999999999999999
sg38
I0
sg39
F8.4800000000000004
sg40
I0
sg41
I0
sg42
F0.63
sg43
F0.84999999999999998
sg44
F141.28999999999999
sg45
F1.0
sg46
F1.0
sg47
I1
sg48
I1
sg49
I0
sg50
I1
sg51
I0
sg52
I0
sg53
F58.859999999999999
sg54
I1
sg55
I0
sg56
F2.0
sg57
F1115.4100000000001
sg58
F3.3900000000000001
sg59
F56.18
sg60
I1
sba(iPocket
Pocket
p889
(dp890
g5
F0.10000000000000001
sg6
F0.45000000000000001
sg7
F0.28000000000000003
sg8
I0
sg9
F0.44
sg10
I42
sg11
F36.0
sg12
I1
sg13
F6.0
sg14
F493.47000000000003
sg15
F17.210000000000001
sg16
F215.88
sg17
I0
sg18
S'PEP'
p891
sg20
I3
sg21
I0
sg22
I0
sg23
S'1h1r_unbound.pdb'
p892
sg25
F0.0
sg26
I0
sg27
F0.17000000000000001
sg28
F3.7799999999999998
sg29
I5
sg30
F3.8799999999999999
sg31
I0
sg32
F0.040000000000000001
sg33
F0.28999999999999998
sg34
I1
sg35
I0
sg36
I0
sg37
F0.27000000000000002
sg38
I0
sg39
F7.6100000000000003
sg40
I2
sg41
I0
sg42
F0.54000000000000004
sg43
F0.17000000000000001
sg44
F112.31
sg45
F0.0
sg46
F0.0
sg47
I0
sg48
I0
sg49
I2
sg50
I1
sg51
I0
sg52
I0
sg53
F41.439999999999998
sg54
I1
sg55
I0
sg56
F-1.25
sg57
F1115.4100000000001
sg58
F3.1400000000000001
sg59
F103.56999999999999
sg60
I0
sba(iPocket
Pocket
p893
(dp894
g5
F0.46000000000000002
sg6
F0.58999999999999997
sg7
F0.33000000000000002
sg8
I0
sg9
F0.56999999999999995
sg10
I63
sg11
F31.43
sg12
I2
sg13
F29.0
sg14
F471.19999999999999
sg15
F28.850000000000001
sg16
F235.84999999999999
sg17
I1
sg18
S'PEP'
p895
sg20
I0
sg21
I0
sg22
I0
sg23
S'1h1r_unbound.pdb'
p896
sg25
F0.0
sg26
I1
sg27
F0.54000000000000004
sg28
F4.0
sg29
I6
sg30
F3.8700000000000001
sg31
I1
sg32
F0.029999999999999999
sg33
F0.19
sg34
I0
sg35
I0
sg36
I1
sg37
F0.40000000000000002
sg38
I0
sg39
F10.23
sg40
I1
sg41
I1
sg42
F0.56000000000000005
sg43
F0.54000000000000004
sg44
F119.56
sg45
F0.0
sg46
F0.0
sg47
I1
sg48
I0
sg49
I2
sg50
I0
sg51
I0
sg52
I0
sg53
F31.399999999999999
sg54
I0
sg55
I0
sg56
F-1.25
sg57
F1115.4100000000001
sg58
F4.1600000000000001
sg59
F116.29000000000001
sg60
I0
sba(iPocket
Pocket
p897
(dp898
g5
F0.40000000000000002
sg6
F0.51000000000000001
sg7
F0.44
sg8
I0
sg9
F0.47999999999999998
sg10
I48
sg11
F43.329999999999998
sg12
I0
sg13
F25.0
sg14
F563.50999999999999
sg15
F6.6200000000000001
sg16
F237.46000000000001
sg17
I0
sg18
S'PEP'
p899
sg20
I1
sg21
I0
sg22
I0
sg23
S'1h1r_unbound.pdb'
p900
sg25
F9.1799999999999997
sg26
I0
sg27
F0.54000000000000004
sg28
F3.75
sg29
I8
sg30
F3.8999999999999999
sg31
I0
sg32
F0.01
sg33
F0.23999999999999999
sg34
I0
sg35
I0
sg36
I0
sg37
F0.31
sg38
I4
sg39
F8.3499999999999996
sg40
I-2
sg41
I1
sg42
F0.67000000000000004
sg43
F0.54000000000000004
sg44
F85.739999999999995
sg45
F0.02
sg46
F0.12
sg47
I0
sg48
I0
sg49
I2
sg50
I0
sg51
I0
sg52
I0
sg53
F-14.0
sg54
I0
sg55
I0
sg56
F-0.96999999999999997
sg57
F1115.4100000000001
sg58
F3.6000000000000001
sg59
F151.72
sg60
I0
sba(iPocket
Pocket
p901
(dp902
g5
F0.52000000000000002
sg6
F0.78000000000000003
sg7
F0.39000000000000001
sg8
I0
sg9
F0.69999999999999996
sg10
I87
sg11
F38.780000000000001
sg12
I1
sg13
F32.619999999999997
sg14
F509.74000000000001
sg15
F15.9
sg16
F240.24000000000001
sg17
I0
sg18
S'PEP'
p903
sg20
I1
sg21
I0
sg22
I1
sg23
S'1h1r_unbound.pdb'
p904
sg25
F0.0
sg26
I1
sg27
F0.45000000000000001
sg28
F3.5899999999999999
sg29
I7
sg30
F3.6200000000000001
sg31
I3
sg32
F0.029999999999999999
sg33
F0.17999999999999999
sg34
I1
sg35
I0
sg36
I1
sg37
F0.56000000000000005
sg38
I0
sg39
F12.77
sg40
I0
sg41
I0
sg42
F0.5
sg43
F0.45000000000000001
sg44
F129.22
sg45
F0.0
sg46
F0.0
sg47
I2
sg48
I0
sg49
I1
sg50
I3
sg51
I1
sg52
I1
sg53
F26.18
sg54
I0
sg55
I0
sg56
F-1.25
sg57
F1115.4100000000001
sg58
F5.5
sg59
F111.02
sg60
I0
sba(iPocket
Pocket
p905
(dp906
g5
F0.01
sg6
F0.62
sg7
F0.28000000000000003
sg8
I0
sg9
F0.57999999999999996
sg10
I38
sg11
F54.170000000000002
sg12
I0
sg13
F0.67000000000000004
sg14
F594.29999999999995
sg15
F20.16
sg16
F254.63
sg17
I0
sg18
S'PEP'
p907
sg20
I0
sg21
I0
sg22
I1
sg23
S'1h1r_unbound.pdb'
p908
sg25
F0.0
sg26
I0
sg27
F0.080000000000000002
sg28
F3.4399999999999999
sg29
I5
sg30
F4.0800000000000001
sg31
I0
sg32
F0.01
sg33
F0.17999999999999999
sg34
I1
sg35
I0
sg36
I1
sg37
F0.23999999999999999
sg38
I2
sg39
F10.359999999999999
sg40
I0
sg41
I0
sg42
F0.53000000000000003
sg43
F0.080000000000000002
sg44
F82.120000000000005
sg45
F0.0
sg46
F0.0
sg47
I1
sg48
I0
sg49
I2
sg50
I1
sg51
I0
sg52
I0
sg53
F5.4400000000000004
sg54
I0
sg55
I0
sg56
F-1.25
sg57
F1115.4100000000001
sg58
F4.3799999999999999
sg59
F172.50999999999999
sg60
I0
sba(iPocket
Pocket
p909
(dp910
g5
F0.059999999999999998
sg6
F0.55000000000000004
sg7
F0.17000000000000001
sg8
I0
sg9
F0.42999999999999999
sg10
I36
sg11
F48.0
sg12
I1
sg13
F4.0
sg14
F585.72000000000003
sg15
F50.039999999999999
sg16
F295.54000000000002
sg17
I1
sg18
S'PEP'
p911
sg20
I0
sg21
I0
sg22
I3
sg23
S'1h1r_unbound.pdb'
p912
sg25
F6.1200000000000001
sg26
I0
sg27
F0.14000000000000001
sg28
F4.2199999999999998
sg29
I3
sg30
F4.1699999999999999
sg31
I0
sg32
F0.01
sg33
F0.17000000000000001
sg34
I0
sg35
I0
sg36
I1
sg37
F0.23000000000000001
sg38
I0
sg39
F7.4000000000000004
sg40
I1
sg41
I1
sg42
F0.59999999999999998
sg43
F0.14000000000000001
sg44
F48.310000000000002
sg45
F0.0
sg46
F0.0
sg47
I0
sg48
I0
sg49
I1
sg50
I1
sg51
I0
sg52
I0
sg53
F25.329999999999998
sg54
I0
sg55
I0
sg56
F-1.25
sg57
F1115.4100000000001
sg58
F3.8500000000000001
sg59
F247.24000000000001
sg60
I0
sba(iPocket
Pocket
p913
(dp914
g5
F0.23000000000000001
sg6
F0.78000000000000003
sg7
F0.44
sg8
I0
sg9
F0.66000000000000003
sg10
I75
sg11
F52.5
sg12
I1
sg13
F14.44
sg14
F716.32000000000005
sg15
F27.48
sg16
F339.57999999999998
sg17
I0
sg18
S'PEP'
p915
sg20
I0
sg21
I1
sg22
I1
sg23
S'1h1r_unbound.pdb'
p916
sg25
F0.0
sg26
I0
sg27
F0.23999999999999999
sg28
F3.7999999999999998
sg29
I8
sg30
F4.0800000000000001
sg31
I1
sg32
F0.01
sg33
F0.73999999999999999
sg34
I0
sg35
I0
sg36
I1
sg37
F0.47999999999999998
sg38
I2
sg39
F11.84
sg40
I2
sg41
I0
sg42
F0.64000000000000001
sg43
F0.23999999999999999
sg44
F114.72
sg45
F0.0
sg46
F0.0
sg47
I0
sg48
I0
sg49
I3
sg50
I0
sg51
I0
sg52
I0
sg53
F-7.0999999999999996
sg54
I0
sg55
I0
sg56
F-1.25
sg57
F1115.4100000000001
sg58
F5.5199999999999996
sg59
F224.86000000000001
sg60
I0
sba(iPocket
Pocket
p917
(dp918
g5
F0.56999999999999995
sg6
F0.81999999999999995
sg7
F0.60999999999999999
sg8
I1
sg9
F1.0
sg10
I103
sg11
F36.359999999999999
sg12
I3
sg13
F35.700000000000003
sg14
F857.96000000000004
sg15
F21.93
sg16
F369.17000000000002
sg17
I0
sg18
S'PEP'
p919
sg20
I0
sg21
I0
sg22
I1
sg23
S'1h1r_unbound.pdb'
p920
sg25
F0.0
sg26
I1
sg27
F0.51000000000000001
sg28
F4.0
sg29
I11
sg30
F3.7000000000000002
sg31
I1
sg32
F0.029999999999999999
sg33
F0.46999999999999997
sg34
I0
sg35
I0
sg36
I2
sg37
F0.66000000000000003
sg38
I3
sg39
F18.530000000000001
sg40
I-2
sg41
I1
sg42
F0.51000000000000001
sg43
F0.51000000000000001
sg44
F237.90000000000001
sg45
F0.0
sg46
F0.0
sg47
I0
sg48
I0
sg49
I2
sg50
I0
sg51
I0
sg52
I0
sg53
F10.4
sg54
I0
sg55
I0
sg56
F-1.25
sg57
F1115.4100000000001
sg58
F5.79
sg59
F131.27000000000001
sg60
I0
sba(iPocket
Pocket
p921
(dp922
g5
F0.46999999999999997
sg6
F1.0
sg7
F0.71999999999999997
sg8
I1
sg9
F0.85999999999999999
sg10
I131
sg11
F38.57
sg12
I0
sg13
F29.719999999999999
sg14
F977.42999999999995
sg15
F35.219999999999999
sg16
F482.5
sg17
I1
sg18
S'PEP'
p923
sg20
I2
sg21
I1
sg22
I1
sg23
S'1h1r_unbound.pdb'
p924
sg25
F0.0
sg26
I1
sg27
F0.44
sg28
F4.1600000000000001
sg29
I13
sg30
F3.6800000000000002
sg31
I1
sg32
F0.070000000000000007
sg33
F0.16
sg34
I3
sg35
I0
sg36
I1
sg37
F0.83999999999999997
sg38
I1
sg39
F15.720000000000001
sg40
I0
sg41
I3
sg42
F0.44
sg43
F0.44
sg44
F301.70999999999998
sg45
F0.0
sg46
F0.0
sg47
I2
sg48
I0
sg49
I0
sg50
I0
sg51
I2
sg52
I3
sg53
F29.239999999999998
sg54
I0
sg55
I1
sg56
F-1.25
sg57
F1115.4100000000001
sg58
F7.0499999999999998
sg59
F180.78999999999999
sg60
I1
sba(iPocket
Pocket
p925
(dp926
g5
F1.0
sg6
F0.90000000000000002
sg7
F1.0
sg8
I3
sg9
F0.87
sg10
I155
sg11
F36.840000000000003
sg12
I3
sg13
F63.07
sg14
F964.62
sg15
F39.039999999999999
sg16
F488.04000000000002
sg17
I3
sg18
S'PEP'
p927
sg20
I0
sg21
I1
sg22
I0
sg23
S'1h1r_unbound.pdb'
p928
sg25
F0.0
sg26
I1
sg27
F0.54000000000000004
sg28
F4.1299999999999999
sg29
I18
sg30
F3.7999999999999998
sg31
I2
sg32
F0.73999999999999999
sg33
F0.22
sg34
I1
sg35
I0
sg36
I1
sg37
F1.0
sg38
I4
sg39
F16.050000000000001
sg40
I-1
sg41
I3
sg42
F0.46999999999999997
sg43
F0.54000000000000004
sg44
F288.62
sg45
F0.0
sg46
F0.0
sg47
I1
sg48
I0
sg49
I3
sg50
I2
sg51
I2
sg52
I0
sg53
F25.670000000000002
sg54
I0
sg55
I0
sg56
F-1.25
sg57
F1115.4100000000001
sg58
F6.3799999999999999
sg59
F199.41
sg60
I0
sbasS'2hpj'
p929
(lp930
(iPocket
Pocket
p931
(dp932
g5
F0.38
sg6
F0.88
sg7
F0.67000000000000004
sg8
I0
sg9
F1.0
sg10
I40
sg11
F34.780000000000001
sg12
I1
sg13
F8.4000000000000004
sg14
F742.92999999999995
sg15
F23.329999999999998
sg16
F228.05000000000001
sg17
I0
sg18
S'PEP'
p933
sg20
I2
sg21
I0
sg22
I0
sg23
S'2hpj_unbound.pdb'
p934
sg25
F0.0
sg26
I0
sg27
F0.25
sg28
F3.6200000000000001
sg29
I4
sg30
F4.1399999999999997
sg31
I0
sg32
F0.070000000000000007
sg33
F0.28999999999999998
sg34
I0
sg35
I0
sg36
I0
sg37
F0.87
sg38
I1
sg39
F10.869999999999999
sg40
I-1
sg41
I1
sg42
F0.65000000000000002
sg43
F0.25
sg44
F149.75
sg45
F0.0
sg46
F0.0
sg47
I0
sg48
I0
sg49
I0
sg50
I0
sg51
I2
sg52
I1
sg53
F35.880000000000003
sg54
I0
sg55
I0
sg56
F-1.25
sg57
F448.16000000000003
sg58
F3.7400000000000002
sg59
F78.310000000000002
sg60
I0
sba(iPocket
Pocket
p935
(dp936
g5
F0.59999999999999998
sg6
F1.0
sg7
F0.67000000000000004
sg8
I0
sg9
F0.85999999999999999
sg10
I46
sg11
F32.259999999999998
sg12
I0
sg13
F13.119999999999999
sg14
F543.89999999999998
sg15
F1.0600000000000001
sg16
F238.12
sg17
I1
sg18
S'PEP'
p937
sg20
I1
sg21
I2
sg22
I1
sg23
S'2hpj_unbound.pdb'
p938
sg25
F60.780000000000001
sg26
I0
sg27
F0.34999999999999998
sg28
F3.6699999999999999
sg29
I4
sg30
F4.0199999999999996
sg31
I0
sg32
F0.040000000000000001
sg33
F0.25
sg34
I2
sg35
I1
sg36
I0
sg37
F1.0
sg38
I0
sg39
F9.1899999999999995
sg40
I3
sg41
I0
sg42
F0.55000000000000004
sg43
F0.34999999999999998
sg44
F111.09999999999999
sg45
F0.95999999999999996
sg46
F1.0
sg47
I1
sg48
I1
sg49
I1
sg50
I0
sg51
I0
sg52
I0
sg53
F12.44
sg54
I0
sg55
I0
sg56
F1.95
sg57
F448.16000000000003
sg58
F4.2000000000000002
sg59
F127.02
sg60
I0
sbasS'2h3l'
p939
(lp940
(iPocket
Pocket
p941
(dp942
g5
F1.0
sg6
F0.93999999999999995
sg7
F0.64000000000000001
sg8
I1
sg9
F0.94999999999999996
sg10
I75
sg11
F40.479999999999997
sg12
I1
sg13
F20.649999999999999
sg14
F572.89999999999998
sg15
F13.470000000000001
sg16
F327.48000000000002
sg17
I2
sg18
S'PEP'
p943
sg20
I0
sg21
I0
sg22
I2
sg23
S'2h3l_unbound.pdb'
p944
sg25
F0.0
sg26
I1
sg27
F0.40999999999999998
sg28
F4.2000000000000002
sg29
I7
sg30
F3.7400000000000002
sg31
I1
sg32
F0.48999999999999999
sg33
F0.14999999999999999
sg34
I0
sg35
I0
sg36
I0
sg37
F0.71999999999999997
sg38
I1
sg39
F15.58
sg40
I0
sg41
I1
sg42
F0.46000000000000002
sg43
F0.40999999999999998
sg44
F158.19999999999999
sg45
F0.0
sg46
F0.0
sg47
I0
sg48
I0
sg49
I2
sg50
I1
sg51
I0
sg52
I2
sg53
F22.800000000000001
sg54
I0
sg55
I0
sg56
F-1.25
sg57
F809.08000000000004
sg58
F5.7800000000000002
sg59
F169.28
sg60
I0
sba(iPocket
Pocket
p945
(dp946
g5
F0.53000000000000003
sg6
F1.0
sg7
F1.0
sg8
I2
sg9
F1.0
sg10
I104
sg11
F53.57
sg12
I1
sg13
F11.0
sg14
F929.78999999999996
sg15
F14.880000000000001
sg16
F458.73000000000002
sg17
I0
sg18
S'PEP'
p947
sg20
I1
sg21
I0
sg22
I1
sg23
S'2h3l_unbound.pdb'
p948
sg25
F0.0
sg26
I2
sg27
F0.17000000000000001
sg28
F3.5699999999999998
sg29
I11
sg30
F3.6600000000000001
sg31
I3
sg32
F0.050000000000000003
sg33
F0.17999999999999999
sg34
I0
sg35
I0
sg36
I0
sg37
F1.0
sg38
I2
sg39
F16.43
sg40
I-3
sg41
I0
sg42
F0.51000000000000001
sg43
F0.17000000000000001
sg44
F152.16
sg45
F0.0
sg46
F0.0
sg47
I0
sg48
I0
sg49
I1
sg50
I0
sg51
I0
sg52
I1
sg53
F-10.43
sg54
I0
sg55
I0
sg56
F-1.25
sg57
F809.08000000000004
sg58
F6.1600000000000001
sg59
F306.56999999999999
sg60
I0
sbasS'1x2j'
p949
(lp950
(iPocket
Pocket
p951
(dp952
g5
F1.0
sg6
F0.42999999999999999
sg7
F0.25
sg8
I2
sg9
F0.38
sg10
I42
sg11
F32.0
sg12
I3
sg13
F31.0
sg14
F113.73
sg15
F14.99
sg16
F20.120000000000001
sg17
I0
sg18
S'PEP'
p953
sg20
I0
sg21
I0
sg22
I0
sg23
S'1x2j_unbound.pdb'
p954
sg25
F0.0
sg26
I0
sg27
F0.76000000000000001
sg28
F4.1500000000000004
sg29
I4
sg30
F3.21
sg31
I0
sg32
F0.84999999999999998
sg33
F0.089999999999999997
sg34
I2
sg35
I0
sg36
I0
sg37
F0.5
sg38
I0
sg39
F4.8799999999999999
sg40
I0
sg41
I1
sg42
F0.44
sg43
F0.76000000000000001
sg44
F16.91
sg45
F0.0
sg46
F0.0
sg47
I0
sg48
I0
sg49
I0
sg50
I0
sg51
I4
sg52
I0
sg53
F57.920000000000002
sg54
I0
sg55
I0
sg56
F-1.25
sg57
F796.02999999999997
sg58
F2.46
sg59
F3.21
sg60
I1
sba(iPocket
Pocket
p955
(dp956
g5
F0.65000000000000002
sg6
F0.45000000000000001
sg7
F0.38
sg8
I4
sg9
F0.51000000000000001
sg10
I48
sg11
F51.609999999999999
sg12
I2
sg13
F20.0
sg14
F265.24000000000001
sg15
F6.4400000000000004
sg16
F165.88999999999999
sg17
I0
sg18
S'PEP'
p957
sg20
I0
sg21
I0
sg22
I1
sg23
S'1x2j_unbound.pdb'
p958
sg25
F9.0899999999999999
sg26
I0
sg27
F0.44
sg28
F4.1699999999999999
sg29
I6
sg30
F4.0
sg31
I0
sg32
F0.080000000000000002
sg33
F0.10000000000000001
sg34
I0
sg35
I0
sg36
I0
sg37
F0.56999999999999995
sg38
I0
sg39
F6.8700000000000001
sg40
I0
sg41
I2
sg42
F0.57999999999999996
sg43
F0.44
sg44
F80.909999999999997
sg45
F0.0
sg46
F0.0
sg47
I1
sg48
I0
sg49
I0
sg50
I0
sg51
I2
sg52
I0
sg53
F32.329999999999998
sg54
I0
sg55
I0
sg56
F-1.25
sg57
F796.02999999999997
sg58
F2.5800000000000001
sg59
F84.980000000000004
sg60
I0
sba(iPocket
Pocket
p959
(dp960
g5
F0.45000000000000001
sg6
F0.53000000000000003
sg7
F0.12
sg8
I0
sg9
F0.56000000000000005
sg10
I41
sg11
F42.310000000000002
sg12
I1
sg13
F14.0
sg14
F442.41000000000003
sg15
F29.390000000000001
sg16
F174.94999999999999
sg17
I0
sg18
S'PEP'
p961
sg20
I0
sg21
I0
sg22
I2
sg23
S'1x2j_unbound.pdb'
p962
sg25
F0.0
sg26
I0
sg27
F0.37
sg28
F3.5
sg29
I2
sg30
F3.6499999999999999
sg31
I0
sg32
F0.01
sg33
F0.17000000000000001
sg34
I1
sg35
I0
sg36
I0
sg37
F0.48999999999999999
sg38
I2
sg39
F7.6200000000000001
sg40
I-2
sg41
I0
sg42
F0.48999999999999999
sg43
F0.37
sg44
F74.870000000000005
sg45
F0.0
sg46
F0.0
sg47
I0
sg48
I0
sg49
I0
sg50
I0
sg51
I0
sg52
I0
sg53
F-4.5
sg54
I0
sg55
I0
sg56
F-1.25
sg57
F796.02999999999997
sg58
F3.0499999999999998
sg59
F100.08
sg60
I0
sba(iPocket
Pocket
p963
(dp964
g5
F0.0
sg6
F0.40000000000000002
sg7
F0.75
sg8
I6
sg9
F0.46999999999999997
sg10
I49
sg11
F62.07
sg12
I2
sg13
F0.0
sg14
F309.62
sg15
F12.35
sg16
F188.84
sg17
I0
sg18
S'PEP'
p965
sg20
I0
sg21
I0
sg22
I0
sg23
S'1x2j_unbound.pdb'
p966
sg25
F0.0
sg26
I0
sg27
F0.0
sg28
F4.8899999999999997
sg29
I12
sg30
F4.3399999999999999
sg31
I0
sg32
F0.12
sg33
F0.050000000000000003
sg34
I0
sg35
I0
sg36
I0
sg37
F0.58999999999999997
sg38
I0
sg39
F6.1799999999999997
sg40
I0
sg41
I6
sg42
F0.57999999999999996
sg43
F0.0
sg44
F37.439999999999998
sg45
F0.0
sg46
F0.0
sg47
I2
sg48
I0
sg49
I0
sg50
I0
sg51
I2
sg52
I0
sg53
F44.560000000000002
sg54
I0
sg55
I0
sg56
F-1.25
sg57
F796.02999999999997
sg58
F2.3300000000000001
sg59
F151.41
sg60
I0
sba(iPocket
Pocket
p967
(dp968
g5
F0.0
sg6
F0.69999999999999996
sg7
F0.25
sg8
I0
sg9
F0.62
sg10
I36
sg11
F58.329999999999998
sg12
I0
sg13
F0.0
sg14
F424.26999999999998
sg15
F27.859999999999999
sg16
F232.31999999999999
sg17
I0
sg18
S'PEP'
p969
sg20
I1
sg21
I1
sg22
I1
sg23
S'1x2j_unbound.pdb'
p970
sg25
F0.0
sg26
I1
sg27
F0.029999999999999999
sg28
F4.25
sg29
I4
sg30
F3.7200000000000002
sg31
I0
sg32
F0.01
sg33
F0.40999999999999998
sg34
I1
sg35
I0
sg36
I0
sg37
F0.42999999999999999
sg38
I0
sg39
F8.5399999999999991
sg40
I1
sg41
I0
sg42
F0.5
sg43
F0.029999999999999999
sg44
F62.799999999999997
sg45
F0.0
sg46
F0.0
sg47
I0
sg48
I0
sg49
I1
sg50
I1
sg51
I0
sg52
I1
sg53
F19.120000000000001
sg54
I0
sg55
I0
sg56
F-1.25
sg57
F796.02999999999997
sg58
F4.0
sg59
F169.52000000000001
sg60
I0
sba(iPocket
Pocket
p971
(dp972
g5
F0.70999999999999996
sg6
F1.0
sg7
F0.62
sg8
I0
sg9
F0.92000000000000004
sg10
I83
sg11
F45.829999999999998
sg12
I1
sg13
F21.949999999999999
sg14
F645.75
sg15
F14.039999999999999
sg16
F294.01999999999998
sg17
I0
sg18
S'PEP'
p973
sg20
I4
sg21
I1
sg22
I2
sg23
S'1x2j_unbound.pdb'
p974
sg25
F0.0
sg26
I0
sg27
F0.46000000000000002
sg28
F3.8799999999999999
sg29
I10
sg30
F3.5899999999999999
sg31
I2
sg32
F0.10000000000000001
sg33
F0.20999999999999999
sg34
I0
sg35
I0
sg36
I1
sg37
F1.0
sg38
I0
sg39
F13.039999999999999
sg40
I1
sg41
I1
sg42
F0.47999999999999998
sg43
F0.46000000000000002
sg44
F167.86000000000001
sg45
F0.0
sg46
F0.0
sg47
I0
sg48
I0
sg49
I0
sg50
I1
sg51
I1
sg52
I1
sg53
F18.5
sg54
I0
sg55
I0
sg56
F-1.25
sg57
F796.02999999999997
sg58
F5.6699999999999999
sg59
F126.16
sg60
I1
sba(iPocket
Pocket
p975
(dp976
g5
F0.0
sg6
F0.52000000000000002
sg7
F1.0
sg8
I2
sg9
F0.63
sg10
I71
sg11
F48.780000000000001
sg12
I0
sg13
F0.0
sg14
F716.13
sg15
F20.559999999999999
sg16
F312.63999999999999
sg17
I0
sg18
S'PEP'
p977
sg20
I0
sg21
I0
sg22
I0
sg23
S'1x2j_unbound.pdb'
p978
sg25
F0.0
sg26
I0
sg27
F0.0
sg28
F6.21
sg29
I16
sg30
F5.0099999999999998
sg31
I0
sg32
F0.45000000000000001
sg33
F0.11
sg34
I0
sg35
I0
sg36
I1
sg37
F0.84999999999999998
sg38
I0
sg39
F8.6300000000000008
sg40
I2
sg41
I11
sg42
F0.67000000000000004
sg43
F0.0
sg44
F101.44
sg45
F0.0
sg46
F0.0
sg47
I1
sg48
I0
sg49
I0
sg50
I0
sg51
I2
sg52
I0
sg53
F58.630000000000003
sg54
I0
sg55
I2
sg56
F-1.25
sg57
F796.02999999999997
sg58
F3.0
sg59
F211.19999999999999
sg60
I0
sba(iPocket
Pocket
p979
(dp980
g5
F0.56000000000000005
sg6
F0.81999999999999995
sg7
F0.44
sg8
I2
sg9
F1.0
sg10
I69
sg11
F36.840000000000003
sg12
I0
sg13
F17.5
sg14
F858.58000000000004
sg15
F1.0
sg16
F377.48000000000002
sg17
I1
sg18
S'PEP'
p981
sg20
I3
sg21
I2
sg22
I3
sg23
S'1x2j_unbound.pdb'
p982
sg25
F49.350000000000001
sg26
I0
sg27
F0.28999999999999998
sg28
F3.6200000000000001
sg29
I7
sg30
F4.8600000000000003
sg31
I0
sg32
F0.02
sg33
F0.34999999999999998
sg34
I3
sg35
I1
sg36
I0
sg37
F0.82999999999999996
sg38
I0
sg39
F14.289999999999999
sg40
I2
sg41
I0
sg42
F0.64000000000000001
sg43
F0.28999999999999998
sg44
F187.18000000000001
sg45
F0.93999999999999995
sg46
F1.0
sg47
I0
sg48
I1
sg49
I0
sg50
I1
sg51
I1
sg52
I0
sg53
F12.44
sg54
I0
sg55
I0
sg56
F1.9299999999999999
sg57
F796.02999999999997
sg58
F4.6799999999999997
sg59
F190.28999999999999
sg60
I0
sbasS'1utn'
p983
(lp984
(iPocket
Pocket
p985
(dp986
g5
F0.080000000000000002
sg6
F0.53000000000000003
sg7
F0.64000000000000001
sg8
I2
sg9
F0.47999999999999998
sg10
I37
sg11
F56.0
sg12
I1
sg13
F2.0
sg14
F128.63
sg15
F16.789999999999999
sg16
F37.469999999999999
sg17
I0
sg18
S'PEP'
p987
sg20
I0
sg21
I1
sg22
I1
sg23
S'1utn_unbound.pdb'
p988
sg25
F0.0
sg26
I0
sg27
F0.080000000000000002
sg28
F4.9199999999999999
sg29
I9
sg30
F3.2799999999999998
sg31
I1
sg32
F0.02
sg33
F0.12
sg34
I0
sg35
I0
sg36
I1
sg37
F0.42999999999999999
sg38
I1
sg39
F6.5700000000000003
sg40
I1
sg41
I1
sg42
F0.41999999999999998
sg43
F0.080000000000000002
sg44
F8.4499999999999993
sg45
F0.0
sg46
F0.0
sg47
I0
sg48
I0
sg49
I0
sg50
I1
sg51
I0
sg52
I1
sg53
F20.0
sg54
I0
sg55
I1
sg56
F-1.25
sg57
F1144.8599999999999
sg58
F3.04
sg59
F29.02
sg60
I1
sba(iPocket
Pocket
p989
(dp990
g5
F0.23999999999999999
sg6
F0.66000000000000003
sg7
F1.0
sg8
I3
sg9
F0.68000000000000005
sg10
I66
sg11
F56.759999999999998
sg12
I1
sg13
F6.0
sg14
F474.75
sg15
F1.6000000000000001
sg16
F243.74000000000001
sg17
I0
sg18
S'PEP'
p991
sg20
I4
sg21
I0
sg22
I0
sg23
S'1utn_unbound.pdb'
p992
sg25
F34.259999999999998
sg26
I1
sg27
F0.11
sg28
F4.4699999999999998
sg29
I14
sg30
F3.73
sg31
I1
sg32
F0.050000000000000003
sg33
F0.19
sg34
I0
sg35
I1
sg36
I0
sg37
F0.77000000000000002
sg38
I0
sg39
F9.7100000000000009
sg40
I2
sg41
I1
sg42
F0.52000000000000002
sg43
F0.11
sg44
F105.14
sg45
F0.92000000000000004
sg46
F1.0
sg47
I0
sg48
I1
sg49
I1
sg50
I1
sg51
I0
sg52
I1
sg53
F17.879999999999999
sg54
I0
sg55
I2
sg56
F1.9099999999999999
sg57
F1144.8599999999999
sg58
F3.75
sg59
F138.59
sg60
I1
sba(iPocket
Pocket
p993
(dp994
g5
F0.12
sg6
F0.75
sg7
F0.56999999999999995
sg8
I1
sg9
F0.69999999999999996
sg10
I51
sg11
F46.670000000000002
sg12
I0
sg13
F3.0
sg14
F684.05999999999995
sg15
F15.51
sg16
F264.01999999999998
sg17
I0
sg18
S'PEP'
p995
sg20
I4
sg21
I0
sg22
I0
sg23
S'1utn_unbound.pdb'
p996
sg25
F0.0
sg26
I0
sg27
F0.080000000000000002
sg28
F3.0800000000000001
sg29
I8
sg30
F4.1100000000000003
sg31
I0
sg32
F0.02
sg33
F0.29999999999999999
sg34
I1
sg35
I0
sg36
I0
sg37
F0.59999999999999998
sg38
I0
sg39
F10.0
sg40
I3
sg41
I0
sg42
F0.56999999999999995
sg43
F0.080000000000000002
sg44
F97.819999999999993
sg45
F0.0
sg46
F0.0
sg47
I1
sg48
I0
sg49
I3
sg50
I1
sg51
I1
sg52
I0
sg53
F17.579999999999998
sg54
I0
sg55
I0
sg56
F-1.25
sg57
F1144.8599999999999
sg58
F4.25
sg59
F166.19999999999999
sg60
I0
sba(iPocket
Pocket
p997
(dp998
g5
F1.0
sg6
F1.0
sg7
F0.70999999999999996
sg8
I0
sg9
F1.0
sg10
I85
sg11
F40.43
sg12
I1
sg13
F24.530000000000001
sg14
F511.69
sg15
F14.99
sg16
F305.04000000000002
sg17
I1
sg18
S'PEP'
p999
sg20
I2
sg21
I0
sg22
I0
sg23
S'1utn_unbound.pdb'
p1000
sg25
F0.0
sg26
I0
sg27
F0.45000000000000001
sg28
F3.9399999999999999
sg29
I10
sg30
F3.5800000000000001
sg31
I1
sg32
F0.5
sg33
F0.28999999999999998
sg34
I0
sg35
I0
sg36
I1
sg37
F1.0
sg38
I0
sg39
F14.69
sg40
I6
sg41
I0
sg42
F0.40999999999999998
sg43
F0.45000000000000001
sg44
F135.49000000000001
sg45
F0.0
sg46
F0.0
sg47
I2
sg48
I0
sg49
I2
sg50
I1
sg51
I2
sg52
I0
sg53
F20.109999999999999
sg54
I1
sg55
I4
sg56
F-1.25
sg57
F1144.8599999999999
sg58
F5.6900000000000004
sg59
F169.55000000000001
sg60
I0
sbasS'2alf'
p1001
(lp1002
(iPocket
Pocket
p1003
(dp1004
g5
F0.27000000000000002
sg6
F0.55000000000000004
sg7
F0.89000000000000001
sg8
I4
sg9
F0.87
sg10
I49
sg11
F60.0
sg12
I0
sg13
F6.0
sg14
F202.41
sg15
F2.5299999999999998
sg16
F164.00999999999999
sg17
I0
sg18
S'PEP'
p1005
sg20
I1
sg21
I1
sg22
I0
sg23
S'2alf_unbound.pdb'
p1006
sg25
F27.940000000000001
sg26
I0
sg27
F0.14000000000000001
sg28
F3.9199999999999999
sg29
I8
sg30
F3.6600000000000001
sg31
I0
sg32
F0.040000000000000001
sg33
F0.14999999999999999
sg34
I0
sg35
I1
sg36
I1
sg37
F1.0
sg38
I0
sg39
F7.5999999999999996
sg40
I2
sg41
I0
sg42
F0.46000000000000002
sg43
F0.14000000000000001
sg44
F48.310000000000002
sg45
F0.56999999999999995
sg46
F1.0
sg47
I0
sg48
I1
sg49
I1
sg50
I2
sg51
I2
sg52
I0
sg53
F19.579999999999998
sg54
I0
sg55
I0
sg56
F1.46
sg57
F450.86000000000001
sg58
F2.5099999999999998
sg59
F115.70999999999999
sg60
I0
sba(iPocket
Pocket
p1007
(dp1008
g5
F0.34999999999999998
sg6
F0.83999999999999997
sg7
F1.0
sg8
I0
sg9
F0.89000000000000001
sg10
I42
sg11
F44.829999999999998
sg12
I0
sg13
F7.7800000000000002
sg14
F466.52999999999997
sg15
F13.029999999999999
sg16
F255.44
sg17
I1
sg18
S'PEP'
p1009
sg20
I1
sg21
I0
sg22
I0
sg23
S'2alf_unbound.pdb'
p1010
sg25
F0.0
sg26
I2
sg27
F0.20999999999999999
sg28
F3.5499999999999998
sg29
I9
sg30
F3.6800000000000002
sg31
I0
sg32
F0.040000000000000001
sg33
F0.40000000000000002
sg34
I0
sg35
I0
sg36
I2
sg37
F0.84999999999999998
sg38
I0
sg39
F7.7599999999999998
sg40
I2
sg41
I0
sg42
F0.53000000000000003
sg43
F0.20999999999999999
sg44
F129.19999999999999
sg45
F0.0
sg46
F0.0
sg47
I1
sg48
I0
sg49
I3
sg50
I0
sg51
I0
sg52
I0
sg53
F1.6399999999999999
sg54
I0
sg55
I1
sg56
F-1.25
sg57
F450.86000000000001
sg58
F3.8100000000000001
sg59
F126.25
sg60
I0
sba(iPocket
Pocket
p1011
(dp1012
g5
F0.94999999999999996
sg6
F0.79000000000000004
sg7
F0.67000000000000004
sg8
I2
sg9
F0.93000000000000005
sg10
I38
sg11
F40.909999999999997
sg12
I0
sg13
F21.0
sg14
F651.77999999999997
sg15
F9.1099999999999994
sg16
F257.14999999999998
sg17
I1
sg18
S'PEP'
p1013
sg20
I0
sg21
I1
sg22
I0
sg23
S'2alf_unbound.pdb'
p1014
sg25
F5.8799999999999999
sg26
I1
sg27
F0.57999999999999996
sg28
F4.1200000000000001
sg29
I6
sg30
F3.9900000000000002
sg31
I1
sg32
F0.28999999999999998
sg33
F0.27000000000000002
sg34
I0
sg35
I0
sg36
I0
sg37
F0.77000000000000002
sg38
I0
sg39
F8.2100000000000009
sg40
I1
sg41
I0
sg42
F0.5
sg43
F0.57999999999999996
sg44
F172.69
sg45
F0.0
sg46
F0.0
sg47
I0
sg48
I0
sg49
I1
sg50
I0
sg51
I0
sg52
I1
sg53
F3.6200000000000001
sg54
I0
sg55
I0
sg56
F-1.25
sg57
F450.86000000000001
sg58
F3.5800000000000001
sg59
F84.459999999999994
sg60
I0
sbas.