(lp0
(i__main__
Pocket
p1
(dp2
S'mean_loc_hyd_dens_norm'
p3
F0.27000000000000002
sS'as_density_norm'
p4
F0.55000000000000004
sS'polarity_score_norm'
p5
F0.89000000000000001
sS'GLN'
p6
F4.0
sS'as_max_dst_norm'
p7
F0.87
sS'nb_AS'
p8
F49.0
sS'prop_polar_atm'
p9
F60.0
sS'ILE'
p10
F0.0
sS'mean_loc_hyd_dens'
p11
F6.0
sS'ALA'
p12
F2.0
sS'PP-dst'
p13
F2.5299999999999998
sS'pock_asa'
p14
F164.00999999999999
sS'CYS'
p15
F0.0
sS'lig'
p16
S'PEP'
p17
sS'SER'
p18
F1.0
sS'LYS'
p19
F1.0
sS'PRO'
p20
F0.0
sS'#pdb'
p21
S'2alf_unbound.pdb'
p22
sS'overlap'
p23
F27.940000000000001
sS'GLU'
p24
F0.0
sS'apol_as_prop_norm'
p25
F0.14000000000000001
sS'volume_score'
p26
F3.9199999999999999
sS'polarity_score'
p27
F8.0
sS'mean_as_ray'
p28
F3.6600000000000001
sS'ASN'
p29
F0.0
sS'drug_score'
p30
F0.040000000000000001
sS'flex'
p31
F0.14999999999999999
sS'VAL'
p32
F0.0
sS'PP-crit'
p33
F1.0
sS'GLY'
p34
F0.0
sS'THR'
p35
F1.0
sS'nb_AS_norm'
p36
F1.0
sS'ASP'
p37
F0.0
sS'as_max_dst'
p38
F7.5999999999999996
sS'charge_score'
p39
F2.0
sS'TRP'
p40
F0.0
sS'mean_as_solv_acc'
p41
F0.46000000000000002
sS'pock_apol_asa'
p42
F48.310000000000002
sS'crit5'
p43
F0.56999999999999995
sS'crit4'
p44
F1.0
sS'crit6'
p45
F1.0
sS'apol_as_prop'
p46
F0.14000000000000001
sS'HIS'
p47
F1.0
sS'PHE'
p48
F2.0
sS'pock_vol'
p49
F202.41
sS'MET'
p50
F0.0
sS'hydrophobicity_score'
p51
F19.579999999999998
sS'LEU'
p52
F0.0
sS'ARG'
p53
F0.0
sS'crit6_continue'
p54
F1.46
sS'lig_vol'
p55
F450.86000000000001
sS'as_density'
p56
F2.5099999999999998
sS'pock_pol_asa'
p57
F115.70999999999999
sS'TYR'
p58
F0.0
sba(i__main__
Pocket
p59
(dp60
g3
F0.94999999999999996
sg4
F0.79000000000000004
sg5
F0.67000000000000004
sg6
F2.0
sg7
F0.93000000000000005
sg8
F38.0
sg9
F40.909999999999997
sg10
F0.0
sg11
F21.0
sg12
F0.0
sg13
F9.1099999999999994
sg14
F257.14999999999998
sg15
F1.0
sg16
S'PEP'
p61
sg18
F0.0
sg19
F1.0
sg20
F0.0
sg21
S'2alf_unbound.pdb'
p62
sg23
F5.8799999999999999
sg24
F1.0
sg25
F0.57999999999999996
sg26
F4.1200000000000001
sg27
F6.0
sg28
F3.9900000000000002
sg29
F1.0
sg30
F0.28999999999999998
sg31
F0.27000000000000002
sg32
F0.0
sg33
F0.0
sg34
F0.0
sg35
F0.0
sg36
F0.77000000000000002
sg37
F0.0
sg38
F8.2100000000000009
sg39
F1.0
sg40
F0.0
sg41
F0.5
sg42
F172.69
sg43
F0.0
sg44
F0.0
sg45
F0.0
sg46
F0.57999999999999996
sg47
F1.0
sg48
F0.0
sg49
F651.77999999999997
sg50
F1.0
sg51
F3.6200000000000001
sg52
F0.0
sg53
F0.0
sg54
F-1.25
sg55
F450.86000000000001
sg56
F3.5800000000000001
sg57
F84.459999999999994
sg58
F0.0
sba(i__main__
Pocket
p63
(dp64
g3
F0.34999999999999998
sg4
F0.83999999999999997
sg5
F1.0
sg6
F0.0
sg7
F0.89000000000000001
sg8
F42.0
sg9
F44.829999999999998
sg10
F0.0
sg11
F7.7800000000000002
sg12
F0.0
sg13
F13.029999999999999
sg14
F255.44
sg15
F1.0
sg16
S'PEP'
p65
sg18
F1.0
sg19
F0.0
sg20
F0.0
sg21
S'2alf_unbound.pdb'
p66
sg23
F0.0
sg24
F2.0
sg25
F0.20999999999999999
sg26
F3.5499999999999998
sg27
F9.0
sg28
F3.6800000000000002
sg29
F0.0
sg30
F0.040000000000000001
sg31
F0.40000000000000002
sg32
F0.0
sg33
F0.0
sg34
F1.0
sg35
F2.0
sg36
F0.84999999999999998
sg37
F0.0
sg38
F7.7599999999999998
sg39
F2.0
sg40
F0.0
sg41
F0.53000000000000003
sg42
F129.19999999999999
sg43
F0.0
sg44
F0.0
sg45
F0.0
sg46
F0.20999999999999999
sg47
F3.0
sg48
F0.0
sg49
F466.52999999999997
sg50
F0.0
sg51
F1.6399999999999999
sg52
F0.0
sg53
F1.0
sg54
F-1.25
sg55
F450.86000000000001
sg56
F3.8100000000000001
sg57
F126.25
sg58
F0.0
sba(i__main__
Pocket
p67
(dp68
g3
F0.23999999999999999
sg4
F0.67000000000000004
sg5
F0.55000000000000004
sg6
F1.0
sg7
F0.57999999999999996
sg8
F68.0
sg9
F51.43
sg10
F0.0
sg11
F8.3599999999999994
sg12
F2.0
sg13
F19.210000000000001
sg14
F342.27999999999997
sg15
F1.0
sg16
S'PEP'
p69
sg18
F0.0
sg19
F0.0
sg20
F2.0
sg21
S'1ca4_unbound.pdb'
p70
sg23
F0.0
sg24
F0.0
sg25
F0.16
sg26
F3.9300000000000002
sg27
F6.0
sg28
F4.1699999999999999
sg29
F2.0
sg30
F0.02
sg31
F0.23999999999999999
sg32
F0.0
sg33
F0.0
sg34
F0.0
sg35
F0.0
sg36
F0.52000000000000002
sg37
F0.0
sg38
F11.1
sg39
F2.0
sg40
F1.0
sg41
F0.47999999999999998
sg42
F137.66999999999999
sg43
F0.0
sg44
F0.0
sg45
F0.0
sg46
F0.16
sg47
F2.0
sg48
F1.0
sg49
F865.86000000000001
sg50
F2.0
sg51
F23.859999999999999
sg52
F0.0
sg53
F0.0
sg54
F-1.25
sg55
F570.99000000000001
sg56
F5.1600000000000001
sg57
F204.61000000000001
sg58
F0.0
sba(i__main__
Pocket
p71
(dp72
g3
F0.87
sg4
F0.67000000000000004
sg5
F0.64000000000000001
sg6
F1.0
sg7
F0.71999999999999997
sg8
F89.0
sg9
F46.810000000000002
sg10
F1.0
sg11
F30.32
sg12
F1.0
sg13
F24.100000000000001
sg14
F361.48000000000002
sg15
F1.0
sg16
S'PEP'
p73
sg18
F1.0
sg19
F1.0
sg20
F1.0
sg21
S'1ca4_unbound.pdb'
p74
sg23
F0.0
sg24
F0.0
sg25
F0.41999999999999998
sg26
F3.8799999999999999
sg27
F7.0
sg28
F4.04
sg29
F0.0
sg30
F0.39000000000000001
sg31
F0.16
sg32
F3.0
sg33
F0.0
sg34
F1.0
sg35
F0.0
sg36
F0.68000000000000005
sg37
F1.0
sg38
F14.07
sg39
F2.0
sg40
F0.0
sg41
F0.5
sg42
F169.06999999999999
sg43
F0.0
sg44
F0.0
sg45
F0.0
sg46
F0.41999999999999998
sg47
F2.0
sg48
F0.0
sg49
F870.92999999999995
sg50
F2.0
sg51
F29.710000000000001
sg52
F0.0
sg53
F0.0
sg54
F-1.25
sg55
F570.99000000000001
sg56
F5.1299999999999999
sg57
F192.41
sg58
F1.0
sba(i__main__
Pocket
p75
(dp76
g3
F0.57999999999999996
sg4
F0.79000000000000004
sg5
F0.72999999999999998
sg6
F1.0
sg7
F0.68000000000000005
sg8
F87.0
sg9
F33.329999999999998
sg10
F4.0
sg11
F20.440000000000001
sg12
F1.0
sg13
F24.510000000000002
sg14
F475.76999999999998
sg15
F1.0
sg16
S'PEP'
p77
sg18
F1.0
sg19
F3.0
sg20
F1.0
sg21
S'1ca4_unbound.pdb'
p78
sg23
F0.0
sg24
F1.0
sg25
F0.40999999999999998
sg26
F4.1500000000000004
sg27
F8.0
sg28
F4.1399999999999997
sg29
F1.0
sg30
F0.12
sg31
F0.27000000000000002
sg32
F2.0
sg33
F0.0
sg34
F1.0
sg35
F0.0
sg36
F0.67000000000000004
sg37
F0.0
sg38
F13.27
sg39
F3.0
sg40
F0.0
sg41
F0.5
sg42
F215.50999999999999
sg43
F0.0
sg44
F0.0
sg45
F0.0
sg46
F0.40999999999999998
sg47
F1.0
sg48
F1.0
sg49
F1086.4200000000001
sg50
F0.0
sg51
F32.700000000000003
sg52
F1.0
sg53
F0.0
sg54
F-1.25
sg55
F570.99000000000001
sg56
F6.0300000000000002
sg57
F260.25999999999999
sg58
F0.0
sba(i__main__
Pocket
p79
(dp80
g3
F0.70999999999999996
sg4
F0.70999999999999996
sg5
F0.72999999999999998
sg6
F1.0
sg7
F0.58999999999999997
sg8
F71.0
sg9
F35.899999999999999
sg10
F4.0
sg11
F24.809999999999999
sg12
F1.0
sg13
F25.170000000000002
sg14
F431.08999999999997
sg15
F0.0
sg16
S'PEP'
p81
sg18
F1.0
sg19
F3.0
sg20
F0.0
sg21
S'1ca4_unbound.pdb'
p82
sg23
F0.0
sg24
F1.0
sg25
F0.45000000000000001
sg26
F4.29
sg27
F8.0
sg28
F4.29
sg29
F1.0
sg30
F0.25
sg31
F0.26000000000000001
sg32
F1.0
sg33
F0.0
sg34
F1.0
sg35
F0.0
sg36
F0.54000000000000004
sg37
F0.0
sg38
F11.369999999999999
sg39
F3.0
sg40
F0.0
sg41
F0.51000000000000001
sg42
F193.36000000000001
sg43
F0.0
sg44
F0.0
sg45
F0.0
sg46
F0.45000000000000001
sg47
F1.0
sg48
F1.0
sg49
F950.01999999999998
sg50
F0.0
sg51
F33.82
sg52
F1.0
sg53
F0.0
sg54
F-1.25
sg55
F570.99000000000001
sg56
F5.4199999999999999
sg57
F237.72999999999999
sg58
F0.0
sba(i__main__
Pocket
p83
(dp84
g3
F0.81000000000000005
sg4
F0.83999999999999997
sg5
F1.0
sg6
F2.0
sg7
F0.81999999999999995
sg8
F116.0
sg9
F43.549999999999997
sg10
F1.0
sg11
F28.420000000000002
sg12
F2.0
sg13
F26.280000000000001
sg14
F494.45999999999998
sg15
F1.0
sg16
S'PEP'
p85
sg18
F2.0
sg19
F1.0
sg20
F1.0
sg21
S'1ca4_unbound.pdb'
p86
sg23
F0.0
sg24
F0.0
sg25
F0.33000000000000002
sg26
F3.7400000000000002
sg27
F11.0
sg28
F3.9500000000000002
sg29
F0.0
sg30
F0.46999999999999997
sg31
F0.16
sg32
F3.0
sg33
F0.0
sg34
F1.0
sg35
F0.0
sg36
F0.89000000000000001
sg37
F2.0
sg38
F16.260000000000002
sg39
F2.0
sg40
F0.0
sg41
F0.48999999999999999
sg42
F251.19
sg43
F0.0
sg44
F0.0
sg45
F0.0
sg46
F0.33000000000000002
sg47
F3.0
sg48
F0.0
sg49
F1062.95
sg50
F2.0
sg51
F25.260000000000002
sg52
F1.0
sg53
F0.0
sg54
F-1.25
sg55
F570.99000000000001
sg56
F6.4299999999999997
sg57
F243.28
sg58
F1.0
sba(i__main__
Pocket
p87
(dp88
g3
F0.91000000000000003
sg4
F0.76000000000000001
sg5
F0.27000000000000002
sg6
F0.0
sg7
F0.81999999999999995
sg8
F58.0
sg9
F25.0
sg10
F2.0
sg11
F31.73
sg12
F1.0
sg13
F28.98
sg14
F458.45999999999998
sg15
F0.0
sg16
S'PEP'
p89
sg18
F0.0
sg19
F0.0
sg20
F0.0
sg21
S'1ca4_unbound.pdb'
p90
sg23
F0.0
sg24
F0.0
sg25
F0.76000000000000001
sg26
F3.8599999999999999
sg27
F3.0
sg28
F4.1699999999999999
sg29
F1.0
sg30
F0.40999999999999998
sg31
F0.82999999999999996
sg32
F0.0
sg33
F0.0
sg34
F0.0
sg35
F0.0
sg36
F0.44
sg37
F1.0
sg38
F16.210000000000001
sg39
F0.0
sg40
F0.0
sg41
F0.54000000000000004
sg42
F415.42000000000002
sg43
F0.0
sg44
F0.0
sg45
F0.0
sg46
F0.76000000000000001
sg47
F1.0
sg48
F0.0
sg49
F844.40999999999997
sg50
F0.0
sg51
F37.289999999999999
sg52
F1.0
sg53
F0.0
sg54
F-1.25
sg55
F570.99000000000001
sg56
F5.8399999999999999
sg57
F43.039999999999999
sg58
F0.0
sba(i__main__
Pocket
p91
(dp92
g3
F1.0
sg4
F1.0
sg5
F0.45000000000000001
sg6
F0.0
sg7
F1.0
sg8
F130.0
sg9
F44.869999999999997
sg10
F0.0
sg11
F34.950000000000003
sg12
F1.0
sg13
F29.760000000000002
sg14
F616.41999999999996
sg15
F0.0
sg16
S'PEP'
p93
sg18
F1.0
sg19
F0.0
sg20
F1.0
sg21
S'1ca4_unbound.pdb'
p94
sg23
F0.0
sg24
F0.0
sg25
F0.34000000000000002
sg26
F3.2000000000000002
sg27
F5.0
sg28
F4.2999999999999998
sg29
F1.0
sg30
F0.28000000000000003
sg31
F0.20000000000000001
sg32
F2.0
sg33
F0.0
sg34
F0.0
sg35
F1.0
sg36
F1.0
sg37
F2.0
sg38
F19.98
sg39
F-2.0
sg40
F0.0
sg41
F0.58999999999999997
sg42
F316.39999999999998
sg43
F0.0
sg44
F0.0
sg45
F0.0
sg46
F0.34000000000000002
sg47
F0.0
sg48
F0.0
sg49
F1316.6400000000001
sg50
F0.0
sg51
F11.4
sg52
F1.0
sg53
F0.0
sg54
F-1.25
sg55
F570.99000000000001
sg56
F7.6500000000000004
sg57
F300.01999999999998
sg58
F0.0
sba(i__main__
Pocket
p95
(dp96
g3
F0.51000000000000001
sg4
F0.39000000000000001
sg5
F0.35999999999999999
sg6
F0.0
sg7
F0.46000000000000002
sg8
F40.0
sg9
F36.359999999999999
sg10
F0.0
sg11
F18.0
sg12
F2.0
sg13
F35.380000000000003
sg14
F237.33000000000001
sg15
F1.0
sg16
S'PEP'
p97
sg18
F0.0
sg19
F0.0
sg20
F1.0
sg21
S'1ca4_unbound.pdb'
p98
sg23
F0.0
sg24
F0.0
sg25
F0.46999999999999997
sg26
F4.2199999999999998
sg27
F4.0
sg28
F4.3899999999999997
sg29
F1.0
sg30
F0.040000000000000001
sg31
F0.54000000000000004
sg32
F0.0
sg33
F0.0
sg34
F0.0
sg35
F0.0
sg36
F0.29999999999999999
sg37
F1.0
sg38
F8.6899999999999995
sg39
F-1.0
sg40
F2.0
sg41
F0.63
sg42
F128.00999999999999
sg43
F0.0
sg44
F0.0
sg45
F0.0
sg46
F0.46999999999999997
sg47
F0.0
sg48
F1.0
sg49
F599.08000000000004
sg50
F0.0
sg51
F32.890000000000001
sg52
F0.0
sg53
F0.0
sg54
F-1.25
sg55
F570.99000000000001
sg56
F3.0299999999999998
sg57
F109.31999999999999
sg58
F0.0
sba(i__main__
Pocket
p99
(dp100
g3
F0.91000000000000003
sg4
F0.63
sg5
F0.55000000000000004
sg6
F1.0
sg7
F0.57999999999999996
sg8
F85.0
sg9
F46.670000000000002
sg10
F1.0
sg11
F31.670000000000002
sg12
F1.0
sg13
F39.780000000000001
sg14
F336.62
sg15
F1.0
sg16
S'PEP'
p101
sg18
F1.0
sg19
F1.0
sg20
F1.0
sg21
S'1ca4_unbound.pdb'
p102
sg23
F0.0
sg24
F0.0
sg25
F0.41999999999999998
sg26
F3.8799999999999999
sg27
F6.0
sg28
F4.0099999999999998
sg29
F0.0
sg30
F0.41999999999999998
sg31
F0.17000000000000001
sg32
F3.0
sg33
F0.0
sg34
F1.0
sg35
F0.0
sg36
F0.65000000000000002
sg37
F1.0
sg38
F11.24
sg39
F1.0
sg40
F0.0
sg41
F0.52000000000000002
sg42
F159.41
sg43
F0.0
sg44
F0.0
sg45
F0.0
sg46
F0.41999999999999998
sg47
F1.0
sg48
F0.0
sg49
F770.28999999999996
sg50
F2.0
sg51
F31.059999999999999
sg52
F0.0
sg53
F0.0
sg54
F-1.25
sg55
F570.99000000000001
sg56
F4.8300000000000001
sg57
F177.21000000000001
sg58
F1.0
sba(i__main__
Pocket
p103
(dp104
g3
F0.53000000000000003
sg4
F0.46999999999999997
sg5
F0.55000000000000004
sg6
F2.0
sg7
F0.42999999999999999
sg8
F47.0
sg9
F41.380000000000003
sg10
F3.0
sg11
F18.399999999999999
sg12
F0.0
sg13
F44.719999999999999
sg14
F343.75
sg15
F0.0
sg16
S'PEP'
p105
sg18
F1.0
sg19
F1.0
sg20
F1.0
sg21
S'1ca4_unbound.pdb'
p106
sg23
F0.0
sg24
F0.0
sg25
F0.42999999999999999
sg26
F3.8500000000000001
sg27
F6.0
sg28
F4.4199999999999999
sg29
F0.0
sg30
F0.050000000000000003
sg31
F0.26000000000000001
sg32
F2.0
sg33
F0.0
sg34
F1.0
sg35
F1.0
sg36
F0.35999999999999999
sg37
F0.0
sg38
F7.9299999999999997
sg39
F2.0
sg40
F0.0
sg41
F0.55000000000000004
sg42
F135.25
sg43
F0.0
sg44
F0.0
sg45
F0.0
sg46
F0.42999999999999999
sg47
F1.0
sg48
F0.0
sg49
F711.77999999999997
sg50
F0.0
sg51
F28.920000000000002
sg52
F0.0
sg53
F0.0
sg54
F-1.25
sg55
F570.99000000000001
sg56
F3.6400000000000001
sg57
F208.5
sg58
F0.0
sba(i__main__
Pocket
p107
(dp108
g3
F0.57999999999999996
sg4
F0.64000000000000001
sg5
F0.72999999999999998
sg6
F1.0
sg7
F0.66000000000000003
sg8
F58.0
sg9
F34.289999999999999
sg10
F1.0
sg11
F20.289999999999999
sg12
F1.0
sg13
F49.960000000000001
sg14
F187.15000000000001
sg15
F2.0
sg16
S'PEP'
p109
sg18
F3.0
sg19
F0.0
sg20
F1.0
sg21
S'1ca4_unbound.pdb'
p110
sg23
F25.350000000000001
sg24
F0.0
sg25
F0.47999999999999998
sg26
F3.71
sg27
F8.0
sg28
F3.6400000000000001
sg29
F2.0
sg30
F0.059999999999999998
sg31
F0.19
sg32
F0.0
sg33
F0.0
sg34
F0.0
sg35
F0.0
sg36
F0.44
sg37
F0.0
sg38
F12.890000000000001
sg39
F1.0
sg40
F1.0
sg41
F0.53000000000000003
sg42
F87.349999999999994
sg43
F0.0
sg44
F0.0
sg45
F0.0
sg46
F0.47999999999999998
sg47
F0.0
sg48
F0.0
sg49
F443.89999999999998
sg50
F1.0
sg51
F19.140000000000001
sg52
F0.0
sg53
F1.0
sg54
F-1.25
sg55
F570.99000000000001
sg56
F4.9199999999999999
sg57
F99.799999999999997
sg58
F0.0
sba(i__main__
Pocket
p111
(dp112
g3
F0.59999999999999998
sg4
F0.34999999999999998
sg5
F0.45000000000000001
sg6
F1.0
sg7
F0.38
sg8
F36.0
sg9
F31.82
sg10
F0.0
sg11
F20.91
sg12
F0.0
sg13
F50.340000000000003
sg14
F180.52000000000001
sg15
F2.0
sg16
S'PEP'
p113
sg18
F3.0
sg19
F0.0
sg20
F1.0
sg21
S'1ca4_unbound.pdb'
p114
sg23
F25.350000000000001
sg24
F0.0
sg25
F0.60999999999999999
sg26
F3.0
sg27
F5.0
sg28
F4.0499999999999998
sg29
F1.0
sg30
F0.02
sg31
F0.22
sg32
F0.0
sg33
F0.0
sg34
F0.0
sg35
F0.0
sg36
F0.27000000000000002
sg37
F0.0
sg38
F6.9100000000000001
sg39
F0.0
sg40
F0.0
sg41
F0.64000000000000001
sg42
F97.819999999999993
sg43
F0.0
sg44
F0.0
sg45
F0.0
sg46
F0.60999999999999999
sg47
F0.0
sg48
F0.0
sg49
F380.56999999999999
sg50
F1.0
sg51
F8.1099999999999994
sg52
F0.0
sg53
F0.0
sg54
F-1.25
sg55
F570.99000000000001
sg56
F2.6899999999999999
sg57
F82.700000000000003
sg58
F0.0
sba(i__main__
Pocket
p115
(dp116
g3
F0.17000000000000001
sg4
F0.55000000000000004
sg5
F0.64000000000000001
sg6
F1.0
sg7
F0.53000000000000003
sg8
F40.0
sg9
F57.689999999999998
sg10
F0.0
sg11
F6.0
sg12
F2.0
sg13
F50.909999999999997
sg14
F156.91
sg15
F1.0
sg16
S'PEP'
p117
sg18
F1.0
sg19
F0.0
sg20
F2.0
sg21
S'1ca4_unbound.pdb'
p118
sg23
F0.0
sg24
F0.0
sg25
F0.17000000000000001
sg26
F3.29
sg27
F7.0
sg28
F3.52
sg29
F4.0
sg30
F0.01
sg31
F0.23999999999999999
sg32
F0.0
sg33
F0.0
sg34
F0.0
sg35
F0.0
sg36
F0.29999999999999999
sg37
F0.0
sg38
F10.210000000000001
sg39
F1.0
sg40
F0.0
sg41
F0.46999999999999997
sg42
F43.469999999999999
sg43
F0.0
sg44
F0.0
sg45
F0.0
sg46
F0.17000000000000001
sg47
F1.0
sg48
F1.0
sg49
F220.78999999999999
sg50
F1.0
sg51
F6.71
sg52
F0.0
sg53
F0.0
sg54
F-1.25
sg55
F570.99000000000001
sg56
F4.21
sg57
F113.43000000000001
sg58
F0.0
sba(i__main__
Pocket
p119
(dp120
g3
F0.059999999999999998
sg4
F0.44
sg5
F0.45000000000000001
sg6
F0.0
sg7
F0.52000000000000002
sg8
F39.0
sg9
F48.0
sg10
F2.0
sg11
F2.0
sg12
F1.0
sg13
F52.869999999999997
sg14
F273.94
sg15
F0.0
sg16
S'PEP'
p121
sg18
F0.0
sg19
F2.0
sg20
F1.0
sg21
S'1ca4_unbound.pdb'
p122
sg23
F0.0
sg24
F1.0
sg25
F0.080000000000000002
sg26
F4.7000000000000002
sg27
F5.0
sg28
F4.1900000000000004
sg29
F1.0
sg30
F0.02
sg31
F0.35999999999999999
sg32
F0.0
sg33
F0.0
sg34
F0.0
sg35
F0.0
sg36
F0.28999999999999998
sg37
F0.0
sg38
F9.9399999999999995
sg39
F1.0
sg40
F0.0
sg41
F0.57999999999999996
sg42
F113.52
sg43
F0.0
sg44
F0.0
sg45
F0.0
sg46
F0.080000000000000002
sg47
F0.0
sg48
F1.0
sg49
F609.88999999999999
sg50
F0.0
sg51
F25.100000000000001
sg52
F0.0
sg53
F0.0
sg54
F-1.25
sg55
F570.99000000000001
sg56
F3.3399999999999999
sg57
F160.41999999999999
sg58
F1.0
sba(i__main__
Pocket
p123
(dp124
g3
F0.46999999999999997
sg4
F0.40999999999999998
sg5
F0.70999999999999996
sg6
F0.0
sg7
F0.42999999999999999
sg8
F45.0
sg9
F45.829999999999998
sg10
F0.0
sg11
F24.0
sg12
F1.0
sg13
F15.43
sg14
F163.66999999999999
sg15
F0.0
sg16
S'PEP'
p125
sg18
F1.0
sg19
F1.0
sg20
F0.0
sg21
S'1i2h_unbound.pdb'
p126
sg23
F0.0
sg24
F0.0
sg25
F0.56000000000000005
sg26
F3.75
sg27
F5.0
sg28
F4.0700000000000003
sg29
F1.0
sg30
F0.040000000000000001
sg31
F0.040000000000000001
sg32
F0.0
sg33
F0.0
sg34
F1.0
sg35
F1.0
sg36
F0.52000000000000002
sg37
F0.0
sg38
F6.2699999999999996
sg39
F1.0
sg40
F1.0
sg41
F0.65000000000000002
sg42
F120.76000000000001
sg43
F0.0
sg44
F0.0
sg45
F0.0
sg46
F0.56000000000000005
sg47
F0.0
sg48
F0.0
sg49
F331.95999999999998
sg50
F1.0
sg51
F21.120000000000001
sg52
F0.0
sg53
F0.0
sg54
F-1.25
sg55
F506.38999999999999
sg56
F2.52
sg57
F42.899999999999999
sg58
F0.0
sba(i__main__
Pocket
p127
(dp128
g3
F1.0
sg4
F1.0
sg5
F1.0
sg6
F1.0
sg7
F1.0
sg8
F85.0
sg9
F35.560000000000002
sg10
F1.0
sg11
F51.280000000000001
sg12
F1.0
sg13
F19.07
sg14
F390.13
sg15
F2.0
sg16
S'PEP'
p129
sg18
F1.0
sg19
F0.0
sg20
F1.0
sg21
S'1i2h_unbound.pdb'
p130
sg23
F0.0
sg24
F0.0
sg25
F0.68000000000000005
sg26
F3.5299999999999998
sg27
F7.0
sg28
F3.9399999999999999
sg29
F1.0
sg30
F0.69999999999999996
sg31
F0.27000000000000002
sg32
F0.0
sg33
F0.0
sg34
F1.0
sg35
F1.0
sg36
F1.0
sg37
F2.0
sg38
F16.010000000000002
sg39
F-2.0
sg40
F1.0
sg41
F0.56000000000000005
sg42
F211.33000000000001
sg43
F0.0
sg44
F0.0
sg45
F0.0
sg46
F0.68000000000000005
sg47
F0.0
sg48
F0.0
sg49
F1005.4
sg50
F1.0
sg51
F21.329999999999998
sg52
F1.0
sg53
F0.0
sg54
F-1.25
sg55
F506.38999999999999
sg56
F5.9500000000000002
sg57
F178.78999999999999
sg58
F0.0
sba(i__main__
Pocket
p131
(dp132
g3
F0.11
sg4
F0.76000000000000001
sg5
F0.85999999999999999
sg6
F0.0
sg7
F0.80000000000000004
sg8
F36.0
sg9
F51.850000000000001
sg10
F0.0
sg11
F5.5
sg12
F1.0
sg13
F20.18
sg14
F242.81999999999999
sg15
F0.0
sg16
S'PEP'
p133
sg18
F1.0
sg19
F1.0
sg20
F1.0
sg21
S'1i2h_unbound.pdb'
p134
sg23
F0.0
sg24
F0.0
sg25
F0.22
sg26
F3.3300000000000001
sg27
F6.0
sg28
F3.6600000000000001
sg29
F1.0
sg30
F0.02
sg31
F0.13
sg32
F0.0
sg33
F0.0
sg34
F0.0
sg35
F3.0
sg36
F0.41999999999999998
sg37
F0.0
sg38
F12.58
sg39
F1.0
sg40
F0.0
sg41
F0.46999999999999997
sg42
F144.91999999999999
sg43
F0.0
sg44
F0.0
sg45
F0.0
sg46
F0.22
sg47
F0.0
sg48
F0.0
sg49
F330.35000000000002
sg50
F0.0
sg51
F8.3300000000000001
sg52
F1.0
sg53
F0.0
sg54
F-1.25
sg55
F506.38999999999999
sg56
F4.5499999999999998
sg57
F97.900000000000006
sg58
F0.0
sba(i__main__
Pocket
p135
(dp136
g3
F0.0
sg4
Fnan
sg5
F1.0
sg6
F1.0
sg7
F0.88
sg8
F39.0
sg9
F55.170000000000002
sg10
F0.0
sg11
F0.0
sg12
F0.0
sg13
F8.3499999999999996
sg14
F251.31
sg15
F0.0
sg16
S'PEP'
p137
sg18
F1.0
sg19
F0.0
sg20
F2.0
sg21
S'1eg3_unbound.pdb'
p138
sg23
F2.5299999999999998
sg24
F0.0
sg25
F0.029999999999999999
sg26
F3.0899999999999999
sg27
F6.0
sg28
F4.04
sg29
F2.0
sg30
F0.029999999999999999
sg31
F0.23999999999999999
sg32
F1.0
sg33
F0.0
sg34
F1.0
sg35
F2.0
sg36
F0.64000000000000001
sg37
F0.0
sg38
F10.210000000000001
sg39
F0.0
sg40
F0.0
sg41
F0.59999999999999998
sg42
F84.530000000000001
sg43
F0.0
sg44
F0.0
sg45
F0.0
sg46
F0.029999999999999999
sg47
F0.0
sg48
F0.0
sg49
F683.0
sg50
F1.0
sg51
F1.1799999999999999
sg52
F0.0
sg53
F0.0
sg54
F-1.25
sg55
F1161.8299999999999
sg56
F4.4199999999999999
sg57
F166.78
sg58
F0.0
sba(i__main__
Pocket
p139
(dp140
g3
F0.79000000000000004
sg4
Fnan
sg5
F0.82999999999999996
sg6
F0.0
sg7
F0.94999999999999996
sg8
F43.0
sg9
F37.5
sg10
F2.0
sg11
F23.41
sg12
F0.0
sg13
F14.74
sg14
F256.0
sg15
F0.0
sg16
S'PEP'
p141
sg18
F0.0
sg19
F1.0
sg20
F2.0
sg21
S'1eg3_unbound.pdb'
p142
sg23
F0.0
sg24
F1.0
sg25
F0.63
sg26
F4.5999999999999996
sg27
F5.0
sg28
F3.6000000000000001
sg29
F2.0
sg30
F0.26000000000000001
sg31
F0.19
sg32
F0.0
sg33
F0.0
sg34
F0.0
sg35
F0.0
sg36
F0.70999999999999996
sg37
F0.0
sg38
F11.119999999999999
sg39
F0.0
sg40
F1.0
sg41
F0.48999999999999999
sg42
F158.19999999999999
sg43
F0.0
sg44
F0.0
sg45
F0.0
sg46
F0.63
sg47
F0.0
sg48
F1.0
sg49
F521.94000000000005
sg50
F0.0
sg51
F19.300000000000001
sg52
F0.0
sg53
F0.0
sg54
F-1.25
sg55
F1161.8299999999999
sg56
F4.5
sg57
F97.799999999999997
sg58
F0.0
sba(i__main__
Pocket
p143
(dp144
g3
F0.10000000000000001
sg4
Fnan
sg5
F1.0
sg6
F0.0
sg7
F1.0
sg8
F60.0
sg9
F65.620000000000005
sg10
F1.0
sg11
F3.0
sg12
F1.0
sg13
F22.84
sg14
F442.38999999999999
sg15
F0.0
sg16
S'PEP'
p145
sg18
F1.0
sg19
F1.0
sg20
F2.0
sg21
S'1eg3_unbound.pdb'
p146
sg23
F0.0
sg24
F0.0
sg25
F0.070000000000000007
sg26
F4.3300000000000001
sg27
F6.0
sg28
F4.8300000000000001
sg29
F1.0
sg30
F0.070000000000000007
sg31
F0.37
sg32
F0.0
sg33
F0.0
sg34
F0.0
sg35
F0.0
sg36
F1.0
sg37
F0.0
sg38
F11.76
sg39
F3.0
sg40
F1.0
sg41
F0.53000000000000003
sg42
F141.28999999999999
sg43
F0.0
sg44
F0.0
sg45
F0.0
sg46
F0.070000000000000007
sg47
F2.0
sg48
F2.0
sg49
F978.19000000000005
sg50
F0.0
sg51
F25.420000000000002
sg52
F0.0
sg53
F0.0
sg54
F-1.25
sg55
F1161.8299999999999
sg56
F4.4100000000000001
sg57
F301.10000000000002
sg58
F0.0
sba(i__main__
Pocket
p147
(dp148
g3
F0.46999999999999997
sg4
Fnan
sg5
F0.82999999999999996
sg6
F0.0
sg7
F0.51000000000000001
sg8
F37.0
sg9
F50.0
sg10
F1.0
sg11
F14.0
sg12
F2.0
sg13
F26.109999999999999
sg14
F129.62
sg15
F0.0
sg16
S'PEP'
p149
sg18
F0.0
sg19
F0.0
sg20
F1.0
sg21
S'1eg3_unbound.pdb'
p150
sg23
F0.0
sg24
F1.0
sg25
F0.40999999999999998
sg26
F4.0
sg27
F5.0
sg28
F3.6899999999999999
sg29
F1.0
sg30
F0.050000000000000003
sg31
F0.050000000000000003
sg32
F0.0
sg33
F0.0
sg34
F0.0
sg35
F0.0
sg36
F0.60999999999999999
sg37
F0.0
sg38
F5.4699999999999998
sg39
F2.0
sg40
F0.0
sg41
F0.5
sg42
F60.380000000000003
sg43
F0.0
sg44
F0.0
sg45
F0.0
sg46
F0.40999999999999998
sg47
F2.0
sg48
F1.0
sg49
F219.69999999999999
sg50
F0.0
sg51
F17.800000000000001
sg52
F0.0
sg53
F1.0
sg54
F-1.25
sg55
F1161.8299999999999
sg56
F2.4399999999999999
sg57
F69.239999999999995
sg58
F0.0
sba(i__main__
Pocket
p151
(dp152
g3
F0.83999999999999997
sg4
Fnan
sg5
F0.5
sg6
F0.0
sg7
F0.68000000000000005
sg8
F41.0
sg9
F42.310000000000002
sg10
F2.0
sg11
F24.690000000000001
sg12
F2.0
sg13
F29.100000000000001
sg14
F125.95999999999999
sg15
F0.0
sg16
S'PEP'
p153
sg18
F0.0
sg19
F0.0
sg20
F1.0
sg21
S'1eg3_unbound.pdb'
p154
sg23
F0.0
sg24
F0.0
sg25
F0.63
sg26
F3.2999999999999998
sg27
F3.0
sg28
F3.4399999999999999
sg29
F1.0
sg30
F0.23999999999999999
sg31
F0.17000000000000001
sg32
F0.0
sg33
F0.0
sg34
F1.0
sg35
F1.0
sg36
F0.68000000000000005
sg37
F1.0
sg38
F7.7300000000000004
sg39
F-1.0
sg40
F0.0
sg41
F0.46000000000000002
sg42
F74.870000000000005
sg43
F0.0
sg44
F0.0
sg45
F0.0
sg46
F0.63
sg47
F0.0
sg48
F1.0
sg49
F196.75
sg50
F0.0
sg51
F26.399999999999999
sg52
F0.0
sg53
F0.0
sg54
F-1.25
sg55
F1161.8299999999999
sg56
F3.2799999999999998
sg57
F51.090000000000003
sg58
F0.0
sba(i__main__
Pocket
p155
(dp156
g3
F0.64000000000000001
sg4
Fnan
sg5
F0.33000000000000002
sg6
F0.0
sg7
F0.66000000000000003
sg8
F36.0
sg9
F40.0
sg10
F2.0
sg11
F19.0
sg12
F0.0
sg13
F29.59
sg14
F194.11000000000001
sg15
F0.0
sg16
S'PEP'
p157
sg18
F0.0
sg19
F0.0
sg20
F1.0
sg21
S'1eg3_unbound.pdb'
p158
sg23
F0.0
sg24
F0.0
sg25
F0.56000000000000005
sg26
F4.1200000000000001
sg27
F2.0
sg28
F3.8300000000000001
sg29
F0.0
sg30
F0.10000000000000001
sg31
F0.17000000000000001
sg32
F1.0
sg33
F0.0
sg34
F0.0
sg35
F0.0
sg36
F0.58999999999999997
sg37
F2.0
sg38
F7.4299999999999997
sg39
F-2.0
sg40
F0.0
sg41
F0.52000000000000002
sg42
F109.89
sg43
F0.0
sg44
F0.0
sg45
F0.0
sg46
F0.56000000000000005
sg47
F0.0
sg48
F0.0
sg49
F388.95999999999998
sg50
F1.0
sg51
F36.119999999999997
sg52
F1.0
sg53
F0.0
sg54
F-1.25
sg55
F1161.8299999999999
sg56
F3.3500000000000001
sg57
F84.219999999999999
sg58
F0.0
sba(i__main__
Pocket
p159
(dp160
g3
F1.0
sg4
F1.0
sg5
F1.0
sg6
F2.0
sg7
F1.0
sg8
F453.0
sg9
F30.850000000000001
sg10
F11.0
sg11
F79.189999999999998
sg12
F2.0
sg13
F14.65
sg14
F1446.1500000000001
sg15
F6.0
sg16
S'PEP'
p161
sg18
F3.0
sg19
F0.0
sg20
F2.0
sg21
S'2hwq_unbound.pdb'
p162
sg23
F0.0
sg24
F2.0
sg25
F0.65000000000000002
sg26
F3.7999999999999998
sg27
F20.0
sg28
F3.8799999999999999
sg29
F1.0
sg30
F0.85999999999999999
sg31
F0.32000000000000001
sg32
F2.0
sg33
F0.0
sg34
F7.0
sg35
F1.0
sg36
F1.0
sg37
F5.0
sg38
F33.399999999999999
sg39
F-3.0
sg40
F2.0
sg41
F0.47999999999999998
sg42
F951.61000000000001
sg43
F0.0
sg44
F0.0
sg45
F0.0
sg46
F0.65000000000000002
sg47
F3.0
sg48
F3.0
sg49
F3161.71
sg50
F1.0
sg51
F37.310000000000002
sg52
F5.0
sg53
F1.0
sg54
F-1.25
sg55
F1196.1600000000001
sg56
F12.6
sg57
F494.54000000000002
sg58
F0.0
sba(i__main__
Pocket
p163
(dp164
g3
F0.33000000000000002
sg4
F0.40999999999999998
sg5
F0.29999999999999999
sg6
F0.0
sg7
F0.33000000000000002
sg8
F67.0
sg9
F42.859999999999999
sg10
F0.0
sg11
F25.809999999999999
sg12
F0.0
sg13
F19.34
sg14
F305.08999999999997
sg15
F2.0
sg16
S'PEP'
p165
sg18
F1.0
sg19
F0.0
sg20
F1.0
sg21
S'2hwq_unbound.pdb'
p166
sg23
F0.0
sg24
F0.0
sg25
F0.46000000000000002
sg26
F3.29
sg27
F6.0
sg28
F3.3599999999999999
sg29
F1.0
sg30
F0.01
sg31
F0.56000000000000005
sg32
F0.0
sg33
F0.0
sg34
F2.0
sg35
F1.0
sg36
F0.14999999999999999
sg37
F2.0
sg38
F10.24
sg39
F-1.0
sg40
F0.0
sg41
F0.35999999999999999
sg42
F111.09999999999999
sg43
F0.0
sg44
F0.0
sg45
F0.0
sg46
F0.46000000000000002
sg47
F1.0
sg48
F2.0
sg49
F404.38
sg50
F0.0
sg51
F16.210000000000001
sg52
F1.0
sg53
F0.0
sg54
F-1.25
sg55
F1196.1600000000001
sg56
F5.1900000000000004
sg57
F193.99000000000001
sg58
F0.0
sba(i__main__
Pocket
p167
(dp168
g3
F0.33000000000000002
sg4
F0.38
sg5
F0.34999999999999998
sg6
F2.0
sg7
F0.35999999999999999
sg8
F67.0
sg9
F36.109999999999999
sg10
F0.0
sg11
F25.859999999999999
sg12
F0.0
sg13
F19.66
sg14
F417.92000000000002
sg15
F2.0
sg16
S'PEP'
p169
sg18
F2.0
sg19
F0.0
sg20
F0.0
sg21
S'2hwq_unbound.pdb'
p170
sg23
F0.0
sg24
F0.0
sg25
F0.42999999999999999
sg26
F2.9199999999999999
sg27
F7.0
sg28
F4.4800000000000004
sg29
F0.0
sg30
F0.01
sg31
F0.5
sg32
F0.0
sg33
F0.0
sg34
F3.0
sg35
F0.0
sg36
F0.14999999999999999
sg37
F1.0
sg38
F11.27
sg39
F1.0
sg40
F0.0
sg41
F0.46999999999999997
sg42
F222.19999999999999
sg43
F0.0
sg44
F0.0
sg45
F0.0
sg46
F0.42999999999999999
sg47
F2.0
sg48
F1.0
sg49
F977.63999999999999
sg50
F0.0
sg51
F9.9199999999999999
sg52
F0.0
sg53
F0.0
sg54
F-1.25
sg55
F1196.1600000000001
sg56
F4.79
sg57
F195.71000000000001
sg58
F0.0
sba(i__main__
Pocket
p171
(dp172
g3
F0.089999999999999997
sg4
F0.26000000000000001
sg5
F0.25
sg6
F0.0
sg7
F0.32000000000000001
sg8
F44.0
sg9
F41.380000000000003
sg10
F0.0
sg11
F7.0
sg12
F0.0
sg13
F25.489999999999998
sg14
F257.31999999999999
sg15
F1.0
sg16
S'PEP'
p173
sg18
F0.0
sg19
F0.0
sg20
F0.0
sg21
S'2hwq_unbound.pdb'
p174
sg23
F0.0
sg24
F0.0
sg25
F0.17999999999999999
sg26
F3.4399999999999999
sg27
F5.0
sg28
F4.3200000000000003
sg29
F1.0
sg30
F0.01
sg31
F0.23000000000000001
sg32
F0.0
sg33
F0.0
sg34
F1.0
sg35
F1.0
sg36
F0.10000000000000001
sg37
F2.0
sg38
F9.8800000000000008
sg39
F-1.0
sg40
F0.0
sg41
F0.65000000000000002
sg42
F74.870000000000005
sg43
F0.0
sg44
F0.0
sg45
F0.0
sg46
F0.17999999999999999
sg47
F1.0
sg48
F1.0
sg49
F498.32999999999998
sg50
F1.0
sg51
F11.779999999999999
sg52
F0.0
sg53
F0.0
sg54
F-1.25
sg55
F1196.1600000000001
sg56
F3.3500000000000001
sg57
F182.44999999999999
sg58
F0.0
sba(i__main__
Pocket
p175
(dp176
g3
F0.41999999999999998
sg4
F0.34000000000000002
sg5
F0.14999999999999999
sg6
F0.0
sg7
F0.40999999999999998
sg8
F44.0
sg9
F25.93
sg10
F0.0
sg11
F33.43
sg12
F0.0
sg13
F26.649999999999999
sg14
F311.87
sg15
F1.0
sg16
S'PEP'
p177
sg18
F0.0
sg19
F0.0
sg20
F0.0
sg21
S'2hwq_unbound.pdb'
p178
sg23
F0.0
sg24
F0.0
sg25
F0.80000000000000004
sg26
F4.0
sg27
F3.0
sg28
F4.3899999999999997
sg29
F1.0
sg30
F0.040000000000000001
sg31
F0.67000000000000004
sg32
F0.0
sg33
F0.0
sg34
F0.0
sg35
F0.0
sg36
F0.10000000000000001
sg37
F0.0
sg38
F12.949999999999999
sg39
F2.0
sg40
F0.0
sg41
F0.63
sg42
F237.38999999999999
sg43
F0.0
sg44
F0.0
sg45
F0.0
sg46
F0.80000000000000004
sg47
F2.0
sg48
F0.0
sg49
F822.63999999999999
sg50
F0.0
sg51
F38.5
sg52
F2.0
sg53
F0.0
sg54
F-1.25
sg55
F1196.1600000000001
sg56
F4.2599999999999998
sg57
F74.480000000000004
sg58
F0.0
sba(i__main__
Pocket
p179
(dp180
g3
F0.20999999999999999
sg4
F0.33000000000000002
sg5
F0.25
sg6
F0.0
sg7
F0.28999999999999998
sg8
F48.0
sg9
F39.289999999999999
sg10
F1.0
sg11
F16.329999999999998
sg12
F1.0
sg13
F27.120000000000001
sg14
F218.87
sg15
F0.0
sg16
S'PEP'
p181
sg18
F0.0
sg19
F1.0
sg20
F1.0
sg21
S'2hwq_unbound.pdb'
p182
sg23
F0.0
sg24
F0.0
sg25
F0.38
sg26
F3.6200000000000001
sg27
F5.0
sg28
F3.8300000000000001
sg29
F2.0
sg30
F0.01
sg31
F0.14000000000000001
sg32
F0.0
sg33
F0.0
sg34
F0.0
sg35
F0.0
sg36
F0.10000000000000001
sg37
F1.0
sg38
F9.0700000000000003
sg39
F1.0
sg40
F0.0
sg41
F0.55000000000000004
sg42
F111.09999999999999
sg43
F0.0
sg44
F0.0
sg45
F0.0
sg46
F0.38
sg47
F1.0
sg48
F0.0
sg49
F576.49000000000001
sg50
F0.0
sg51
F-4.0
sg52
F0.0
sg53
F0.0
sg54
F-1.25
sg55
F1196.1600000000001
sg56
F4.1900000000000004
sg57
F107.77
sg58
F0.0
sba(i__main__
Pocket
p183
(dp184
g3
F0.13
sg4
F0.28999999999999998
sg5
F0.20000000000000001
sg6
F0.0
sg7
F0.35999999999999999
sg8
F53.0
sg9
F53.57
sg10
F2.0
sg11
F10.0
sg12
F1.0
sg13
F31.34
sg14
F221.97999999999999
sg15
F1.0
sg16
S'PEP'
p185
sg18
F1.0
sg19
F0.0
sg20
F0.0
sg21
S'2hwq_unbound.pdb'
p186
sg23
F0.0
sg24
F1.0
sg25
F0.20999999999999999
sg26
F3.8999999999999999
sg27
F4.0
sg28
F3.6200000000000001
sg29
F0.0
sg30
F0.029999999999999999
sg31
F0.11
sg32
F0.0
sg33
F0.0
sg34
F0.0
sg35
F0.0
sg36
F0.12
sg37
F1.0
sg38
F11.42
sg39
F-1.0
sg40
F0.0
sg41
F0.45000000000000001
sg42
F73.670000000000002
sg43
F0.0
sg44
F0.0
sg45
F0.0
sg46
F0.20999999999999999
sg47
F1.0
sg48
F1.0
sg49
F405.30000000000001
sg50
F1.0
sg51
F37.899999999999999
sg52
F0.0
sg53
F0.0
sg54
F-1.25
sg55
F1196.1600000000001
sg56
F3.6800000000000002
sg57
F148.31999999999999
sg58
F0.0
sba(i__main__
Pocket
p187
(dp188
g3
F0.23000000000000001
sg4
F0.27000000000000002
sg5
F0.25
sg6
F0.0
sg7
F0.28999999999999998
sg8
F40.0
sg9
F48.0
sg10
F1.0
sg11
F18.0
sg12
F1.0
sg13
F35.409999999999997
sg14
F278.00999999999999
sg15
F0.0
sg16
S'PEP'
p189
sg18
F1.0
sg19
F1.0
sg20
F0.0
sg21
S'2hwq_unbound.pdb'
p190
sg23
F0.0
sg24
F1.0
sg25
F0.46999999999999997
sg26
F3.75
sg27
F5.0
sg28
F4.6600000000000001
sg29
F0.0
sg30
F0.01
sg31
F0.20999999999999999
sg32
F0.0
sg33
F0.0
sg34
F0.0
sg35
F0.0
sg36
F0.089999999999999997
sg37
F2.0
sg38
F8.9900000000000002
sg39
F-2.0
sg40
F0.0
sg41
F0.65000000000000002
sg42
F106.27
sg43
F0.0
sg44
F0.0
sg45
F0.0
sg46
F0.46999999999999997
sg47
F0.0
sg48
F0.0
sg49
F826.45000000000005
sg50
F1.0
sg51
F5.6200000000000001
sg52
F0.0
sg53
F0.0
sg54
F-1.25
sg55
F1196.1600000000001
sg56
F3.3999999999999999
sg57
F171.74000000000001
sg58
F0.0
sba(i__main__
Pocket
p191
(dp192
g3
F0.35999999999999999
sg4
F0.52000000000000002
sg5
F0.12
sg6
F0.0
sg7
F0.45000000000000001
sg8
F39.0
sg9
F40.740000000000002
sg10
F2.0
sg11
F15.0
sg12
F1.0
sg13
F1.3600000000000001
sg14
F211.33000000000001
sg15
F1.0
sg16
S'PEP'
p193
sg18
F0.0
sg19
F0.0
sg20
F0.0
sg21
S'1gy7_unbound.pdb'
p194
sg23
F49.520000000000003
sg24
F0.0
sg25
F0.40999999999999998
sg26
F4.5999999999999996
sg27
F1.0
sg28
F3.9399999999999999
sg29
F0.0
sg30
F0.32000000000000001
sg31
F0.22
sg32
F0.0
sg33
F1.0
sg34
F0.0
sg35
F1.0
sg36
F0.41999999999999998
sg37
F0.0
sg38
F7.1299999999999999
sg39
F0.0
sg40
F0.0
sg41
F0.54000000000000004
sg42
F113.34
sg43
F1.0
sg44
F1.0
sg45
F1.0
sg46
F0.40999999999999998
sg47
F0.0
sg48
F3.0
sg49
F385.81
sg50
F1.0
sg51
F77.200000000000003
sg52
F1.0
sg53
F0.0
sg54
F2.0
sg55
F681.97000000000003
sg56
F3.1800000000000002
sg57
F97.989999999999995
sg58
F0.0
sba(i__main__
Pocket
p195
(dp196
g3
F0.40000000000000002
sg4
F1.0
sg5
F0.75
sg6
F0.0
sg7
F1.0
sg8
F91.0
sg9
F47.060000000000002
sg10
F4.0
sg11
F16.829999999999998
sg12
F1.0
sg13
F2.6800000000000002
sg14
F425.07999999999998
sg15
F1.0
sg16
S'PEP'
p197
sg18
F0.0
sg19
F1.0
sg20
F1.0
sg21
S'1gy7_unbound.pdb'
p198
sg23
F54.289999999999999
sg24
F0.0
sg25
F0.26000000000000001
sg26
F4.2800000000000002
sg27
F6.0
sg28
F3.6299999999999999
sg29
F2.0
sg30
F0.16
sg31
F0.31
sg32
F0.0
sg33
F1.0
sg34
F0.0
sg35
F2.0
sg36
F1.0
sg37
F1.0
sg38
F17.059999999999999
sg39
F0.0
sg40
F0.0
sg41
F0.47999999999999998
sg42
F160.12
sg43
F0.37
sg44
F0.72999999999999998
sg45
F1.0
sg46
F0.26000000000000001
sg47
F0.0
sg48
F3.0
sg49
F907.83000000000004
sg50
F1.0
sg51
F44.609999999999999
sg52
F1.0
sg53
F0.0
sg54
F0.67000000000000004
sg55
F681.97000000000003
sg56
F6.0700000000000003
sg57
F264.95999999999998
sg58
F0.0
sba(i__main__
Pocket
p199
(dp200
g3
F1.0
sg4
F1.0
sg5
F0.5
sg6
F0.0
sg7
F0.84999999999999998
sg8
F83.0
sg9
F31.25
sg10
F0.0
sg11
F42.07
sg12
F1.0
sg13
F8.4800000000000004
sg14
F471.63
sg15
F1.0
sg16
S'PEP'
p201
sg18
F1.0
sg19
F0.0
sg20
F0.0
sg21
S'1gy7_unbound.pdb'
p202
sg23
F11.43
sg24
F1.0
sg25
F0.65000000000000002
sg26
F3.27
sg27
F4.0
sg28
F4.4199999999999999
sg29
F1.0
sg30
F0.42999999999999999
sg31
F0.11
sg32
F2.0
sg33
F0.0
sg34
F1.0
sg35
F0.0
sg36
F0.91000000000000003
sg37
F1.0
sg38
F14.289999999999999
sg39
F-2.0
sg40
F0.0
sg41
F0.59999999999999998
sg42
F333.31
sg43
F0.0
sg44
F0.0
sg45
F0.0
sg46
F0.65000000000000002
sg47
F0.0
sg48
F0.0
sg49
F1096.5
sg50
F2.0
sg51
F24.640000000000001
sg52
F0.0
sg53
F0.0
sg54
F-1.25
sg55
F681.97000000000003
sg56
F6.0499999999999998
sg57
F138.33000000000001
sg58
F0.0
sba(i__main__
Pocket
p203
(dp204
g3
F0.76000000000000001
sg4
F0.59999999999999998
sg5
F0.38
sg6
F0.0
sg7
F0.51000000000000001
sg8
F45.0
sg9
F20.0
sg10
F4.0
sg11
F32.0
sg12
F0.0
sg13
F14.94
sg14
F89.299999999999997
sg15
F4.0
sg16
S'PEP'
p205
sg18
F0.0
sg19
F0.0
sg20
F0.0
sg21
S'1gy7_unbound.pdb'
p206
sg23
F0.0
sg24
F1.0
sg25
F0.78000000000000003
sg26
F4.3600000000000003
sg27
F3.0
sg28
F3.3100000000000001
sg29
F1.0
sg30
F0.67000000000000004
sg31
F0.17999999999999999
sg32
F2.0
sg33
F0.0
sg34
F0.0
sg35
F0.0
sg36
F0.48999999999999999
sg37
F0.0
sg38
F8.2300000000000004
sg39
F-1.0
sg40
F1.0
sg41
F0.39000000000000001
sg42
F78.5
sg43
F0.0
sg44
F0.0
sg45
F0.0
sg46
F0.78000000000000003
sg47
F0.0
sg48
F1.0
sg49
F169.68000000000001
sg50
F0.0
sg51
F63.0
sg52
F0.0
sg53
F0.0
sg54
F-1.25
sg55
F681.97000000000003
sg56
F3.6499999999999999
sg57
F10.800000000000001
sg58
F0.0
sba(i__main__
Pocket
p207
(dp208
g3
F0.96999999999999997
sg4
F0.83999999999999997
sg5
F0.5
sg6
F0.0
sg7
F0.72999999999999998
sg8
F66.0
sg9
F18.600000000000001
sg10
F5.0
sg11
F40.689999999999998
sg12
F0.0
sg13
F15.779999999999999
sg14
F186.30000000000001
sg15
F4.0
sg16
S'PEP'
p209
sg18
F0.0
sg19
F0.0
sg20
F0.0
sg21
S'1gy7_unbound.pdb'
p210
sg23
F0.0
sg24
F1.0
sg25
F0.79000000000000004
sg26
F4.1600000000000001
sg27
F4.0
sg28
F3.46
sg29
F1.0
sg30
F0.87
sg31
F0.11
sg32
F3.0
sg33
F0.0
sg34
F1.0
sg35
F0.0
sg36
F0.71999999999999997
sg37
F1.0
sg38
F12.1
sg39
F-2.0
sg40
F1.0
sg41
F0.41999999999999998
sg42
F159.41
sg43
F0.0
sg44
F0.0
sg45
F0.0
sg46
F0.79000000000000004
sg47
F0.0
sg48
F1.0
sg49
F379.38
sg50
F1.0
sg51
F56.630000000000003
sg52
F0.0
sg53
F0.0
sg54
F-1.25
sg55
F681.97000000000003
sg56
F5.0800000000000001
sg57
F26.899999999999999
sg58
F0.0
sba(i__main__
Pocket
p211
(dp212
g3
F0.38
sg4
F0.53000000000000003
sg5
F0.38
sg6
F0.0
sg7
F0.46999999999999997
sg8
F37.0
sg9
F20.829999999999998
sg10
F2.0
sg11
F16.0
sg12
F0.0
sg13
F18.239999999999998
sg14
F192.97999999999999
sg15
F2.0
sg16
S'PEP'
p213
sg18
F1.0
sg19
F2.0
sg20
F0.0
sg21
S'1gy7_unbound.pdb'
p214
sg23
F0.0
sg24
F0.0
sg25
F0.46000000000000002
sg26
F4.25
sg27
F3.0
sg28
F3.9399999999999999
sg29
F0.0
sg30
F0.050000000000000003
sg31
F0.17999999999999999
sg32
F1.0
sg33
F0.0
sg34
F0.0
sg35
F0.0
sg36
F0.40000000000000002
sg37
F0.0
sg38
F7.4800000000000004
sg39
F2.0
sg40
F0.0
sg41
F0.53000000000000003
sg42
F134.05000000000001
sg43
F0.0
sg44
F0.0
sg45
F0.0
sg46
F0.46000000000000002
sg47
F0.0
sg48
F0.0
sg49
F478.99000000000001
sg50
F0.0
sg51
F40.119999999999997
sg52
F0.0
sg53
F0.0
sg54
F-1.25
sg55
F681.97000000000003
sg56
F3.21
sg57
F58.93
sg58
F0.0
sba(i__main__
Pocket
p215
(dp216
g3
F0.32000000000000001
sg4
F0.88
sg5
F0.62
sg6
F0.0
sg7
F0.79000000000000004
sg8
F54.0
sg9
F50.0
sg10
F1.0
sg11
F13.58
sg12
F0.0
sg13
F18.719999999999999
sg14
F312.56
sg15
F0.0
sg16
S'PEP'
p217
sg18
F0.0
sg19
F1.0
sg20
F2.0
sg21
S'1gy7_unbound.pdb'
p218
sg23
F0.0
sg24
F1.0
sg25
F0.34999999999999998
sg26
F3.9199999999999999
sg27
F5.0
sg28
F3.7999999999999998
sg29
F0.0
sg30
F0.029999999999999999
sg31
F0.23999999999999999
sg32
F1.0
sg33
F0.0
sg34
F1.0
sg35
F3.0
sg36
F0.58999999999999997
sg37
F0.0
sg38
F13.289999999999999
sg39
F0.0
sg40
F0.0
sg41
F0.54000000000000004
sg42
F66.420000000000002
sg43
F0.0
sg44
F0.0
sg45
F0.0
sg46
F0.34999999999999998
sg47
F0.0
sg48
F2.0
sg49
F655.92999999999995
sg50
F0.0
sg51
F22.329999999999998
sg52
F0.0
sg53
F0.0
sg54
F-1.25
sg55
F681.97000000000003
sg56
F5.3200000000000003
sg57
F246.13999999999999
sg58
F0.0
sba(i__main__
Pocket
p219
(dp220
g3
F0.27000000000000002
sg4
F0.67000000000000004
sg5
F1.0
sg6
F1.0
sg7
F0.57999999999999996
sg8
F49.0
sg9
F56.670000000000002
sg10
F1.0
sg11
F11.23
sg12
F0.0
sg13
F19.210000000000001
sg14
F201.84
sg15
F1.0
sg16
S'PEP'
p221
sg18
F2.0
sg19
F1.0
sg20
F2.0
sg21
S'1gy7_unbound.pdb'
p222
sg23
F0.0
sg24
F0.0
sg25
F0.27000000000000002
sg26
F3.3799999999999999
sg27
F8.0
sg28
F3.3599999999999999
sg29
F1.0
sg30
F0.040000000000000001
sg31
F0.31
sg32
F1.0
sg33
F0.0
sg34
F0.0
sg35
F3.0
sg36
F0.53000000000000003
sg37
F0.0
sg38
F9.5299999999999994
sg39
F1.0
sg40
F0.0
sg41
F0.35999999999999999
sg42
F88.159999999999997
sg43
F0.0
sg44
F0.0
sg45
F0.0
sg46
F0.27000000000000002
sg47
F0.0
sg48
F0.0
sg49
F242.40000000000001
sg50
F0.0
sg51
F7.6900000000000004
sg52
F0.0
sg53
F0.0
sg54
F-1.25
sg55
F681.97000000000003
sg56
F4.0599999999999996
sg57
F113.69
sg58
F0.0
sba(i__main__
Pocket
p223
(dp224
g3
F0.68000000000000005
sg4
F0.78000000000000003
sg5
F0.12
sg6
F0.0
sg7
F0.63
sg8
F44.0
sg9
F30.0
sg10
F3.0
sg11
F28.399999999999999
sg12
F0.0
sg13
F21.359999999999999
sg14
F299.93000000000001
sg15
F3.0
sg16
S'PEP'
p225
sg18
F0.0
sg19
F1.0
sg20
F0.0
sg21
S'1gy7_unbound.pdb'
p226
sg23
F0.0
sg24
F0.0
sg25
F0.68000000000000005
sg26
F4.2699999999999996
sg27
F1.0
sg28
F3.8799999999999999
sg29
F0.0
sg30
F0.40000000000000002
sg31
F0.45000000000000001
sg32
F0.0
sg33
F0.0
sg34
F1.0
sg35
F0.0
sg36
F0.47999999999999998
sg37
F0.0
sg38
F10.32
sg39
F1.0
sg40
F0.0
sg41
F0.47999999999999998
sg42
F190.81
sg43
F0.0
sg44
F0.0
sg45
F0.0
sg46
F0.68000000000000005
sg47
F0.0
sg48
F1.0
sg49
F420.54000000000002
sg50
F2.0
sg51
F60.82
sg52
F0.0
sg53
F0.0
sg54
F-1.25
sg55
F681.97000000000003
sg56
F4.75
sg57
F109.12
sg58
F0.0
sba(i__main__
Pocket
p227
(dp228
g3
F0.34999999999999998
sg4
F0.71999999999999997
sg5
F0.75
sg6
F0.0
sg7
F0.72999999999999998
sg8
F48.0
sg9
F50.0
sg10
F1.0
sg11
F14.82
sg12
F0.0
sg13
F29.140000000000001
sg14
F303.61000000000001
sg15
F0.0
sg16
S'PEP'
p229
sg18
F0.0
sg19
F0.0
sg20
F0.0
sg21
S'1gy7_unbound.pdb'
p230
sg23
F0.0
sg24
F0.0
sg25
F0.34999999999999998
sg26
F4.5599999999999996
sg27
F6.0
sg28
F4.0199999999999996
sg29
F1.0
sg30
F0.059999999999999998
sg31
F0.56000000000000005
sg32
F0.0
sg33
F0.0
sg34
F0.0
sg35
F1.0
sg36
F0.52000000000000002
sg37
F2.0
sg38
F12.1
sg39
F-1.0
sg40
F1.0
sg41
F0.54000000000000004
sg42
F103.86
sg43
F0.0
sg44
F0.0
sg45
F0.0
sg46
F0.34999999999999998
sg47
F1.0
sg48
F2.0
sg49
F849.63
sg50
F0.0
sg51
F31.0
sg52
F0.0
sg53
F0.0
sg54
F-1.25
sg55
F681.97000000000003
sg56
F4.3700000000000001
sg57
F199.75999999999999
sg58
F0.0
sba(i__main__
Pocket
p231
(dp232
g3
F0.55000000000000004
sg4
F0.58999999999999997
sg5
F0.5
sg6
F1.0
sg7
F0.70999999999999996
sg8
F40.0
sg9
F43.479999999999997
sg10
F1.0
sg11
F18.0
sg12
F0.0
sg13
F0.93000000000000005
sg14
F208.97999999999999
sg15
F0.0
sg16
S'PEP'
p233
sg18
F0.0
sg19
F0.0
sg20
F2.0
sg21
S'1jd4_unbound.pdb'
p234
sg23
F28.75
sg24
F0.0
sg25
F0.46999999999999997
sg26
F4.4299999999999997
sg27
F3.0
sg28
F3.7000000000000002
sg29
F0.0
sg30
F0.050000000000000003
sg31
F0.050000000000000003
sg32
F0.0
sg33
F1.0
sg34
F0.0
sg35
F1.0
sg36
F0.68000000000000005
sg37
F0.0
sg38
F7.0499999999999998
sg39
F0.0
sg40
F1.0
sg41
F0.53000000000000003
sg42
F93.700000000000003
sg43
F1.0
sg44
F1.0
sg45
F1.0
sg46
F0.46999999999999997
sg47
F0.0
sg48
F0.0
sg49
F401.93000000000001
sg50
F0.0
sg51
F29.140000000000001
sg52
F1.0
sg53
F0.0
sg54
F2.0
sg55
F706.13
sg56
F2.6099999999999999
sg57
F115.28
sg58
F0.0
sba(i__main__
Pocket
p235
(dp236
g3
F1.0
sg4
F0.93000000000000005
sg5
F0.82999999999999996
sg6
F1.0
sg7
F0.81000000000000005
sg8
F58.0
sg9
F25.0
sg10
F1.0
sg11
F32.909999999999997
sg12
F0.0
sg13
F1.3100000000000001
sg14
F259.17000000000002
sg15
F0.0
sg16
S'PEP'
p237
sg18
F0.0
sg19
F0.0
sg20
F0.0
sg21
S'1jd4_unbound.pdb'
p238
sg23
F40.0
sg24
F0.0
sg25
F0.59999999999999998
sg26
F5.0
sg27
F5.0
sg28
F4.1900000000000004
sg29
F2.0
sg30
F0.87
sg31
F0.17000000000000001
sg32
F0.0
sg33
F1.0
sg34
F0.0
sg35
F0.0
sg36
F1.0
sg37
F0.0
sg38
F8.1999999999999993
sg39
F0.0
sg40
F0.0
sg41
F0.56000000000000005
sg42
F149.75
sg43
F1.0
sg44
F1.0
sg45
F1.0
sg46
F0.59999999999999998
sg47
F0.0
sg48
F1.0
sg49
F515.46000000000004
sg50
F0.0
sg51
F44.5
sg52
F1.0
sg53
F0.0
sg54
F2.0
sg55
F706.13
sg56
F4.0700000000000003
sg57
F109.42
sg58
F2.0
sba(i__main__
Pocket
p239
(dp240
g3
F0.20999999999999999
sg4
F0.97999999999999998
sg5
F0.67000000000000004
sg6
F0.0
sg7
F1.0
sg8
F47.0
sg9
F44.829999999999998
sg10
F0.0
sg11
F6.75
sg12
F0.0
sg13
F8.1400000000000006
sg14
F237.80000000000001
sg15
F2.0
sg16
S'PEP'
p241
sg18
F1.0
sg19
F1.0
sg20
F1.0
sg21
S'1jd4_unbound.pdb'
p242
sg23
F2.5
sg24
F0.0
sg25
F0.17000000000000001
sg26
F4.5599999999999996
sg27
F4.0
sg28
F3.8599999999999999
sg29
F0.0
sg30
F0.02
sg31
F0.34999999999999998
sg32
F1.0
sg33
F0.0
sg34
F0.0
sg35
F0.0
sg36
F0.81000000000000005
sg37
F0.0
sg38
F10.34
sg39
F3.0
sg40
F0.0
sg41
F0.53000000000000003
sg42
F96.609999999999999
sg43
F0.0
sg44
F0.0
sg45
F0.0
sg46
F0.17000000000000001
sg47
F0.0
sg48
F1.0
sg49
F474.25999999999999
sg50
F0.0
sg51
F19.109999999999999
sg52
F0.0
sg53
F2.0
sg54
F-1.25
sg55
F706.13
sg56
F4.2800000000000002
sg57
F141.19
sg58
F0.0
sba(i__main__
Pocket
p243
(dp244
g3
F0.48999999999999999
sg4
F0.82999999999999996
sg5
F0.82999999999999996
sg6
F0.0
sg7
F0.96999999999999997
sg8
F40.0
sg9
F39.130000000000003
sg10
F1.0
sg11
F16.0
sg12
F1.0
sg13
F9.0299999999999994
sg14
F303.43000000000001
sg15
F0.0
sg16
S'PEP'
p245
sg18
F0.0
sg19
F0.0
sg20
F0.0
sg21
S'1jd4_unbound.pdb'
p246
sg23
F3.75
sg24
F0.0
sg25
F0.42999999999999999
sg26
F5.3300000000000001
sg27
F5.0
sg28
F3.8799999999999999
sg29
F0.0
sg30
F0.46000000000000002
sg31
F0.46000000000000002
sg32
F0.0
sg33
F0.0
sg34
F0.0
sg35
F0.0
sg36
F0.68000000000000005
sg37
F1.0
sg38
F10.039999999999999
sg39
F0.0
sg40
F2.0
sg41
F0.45000000000000001
sg42
F160.61000000000001
sg43
F0.0
sg44
F0.0
sg45
F0.0
sg46
F0.42999999999999999
sg47
F1.0
sg48
F1.0
sg49
F534.92999999999995
sg50
F1.0
sg51
F58.219999999999999
sg52
F0.0
sg53
F0.0
sg54
F-1.25
sg55
F706.13
sg56
F3.6200000000000001
sg57
F142.81
sg58
F1.0
sba(i__main__
Pocket
p247
(dp248
g3
F0.87
sg4
F0.5
sg5
F0.42999999999999999
sg6
F0.0
sg7
F0.67000000000000004
sg8
F44.0
sg9
F32.0
sg10
F1.0
sg11
F24.0
sg12
F1.0
sg13
F1.1499999999999999
sg14
F171.97999999999999
sg15
F1.0
sg16
S'PEP'
p249
sg18
F0.0
sg19
F1.0
sg20
F0.0
sg21
S'1jwf_unbound.pdb'
p250
sg23
F35.210000000000001
sg24
F0.0
sg25
F0.56999999999999995
sg26
F3.6200000000000001
sg27
F3.0
sg28
F4.04
sg29
F0.0
sg30
F0.27000000000000002
sg31
F0.20000000000000001
sg32
F0.0
sg33
F1.0
sg34
F1.0
sg35
F0.0
sg36
F1.0
sg37
F1.0
sg38
F6.1699999999999999
sg39
F1.0
sg40
F0.0
sg41
F0.57999999999999996
sg42
F124.52
sg43
F0.93000000000000005
sg44
F0.75
sg45
F1.0
sg46
F0.56999999999999995
sg47
F1.0
sg48
F0.0
sg49
F284.49000000000001
sg50
F0.0
sg51
F27.0
sg52
F1.0
sg53
F0.0
sg54
F1.4099999999999999
sg55
F451.93000000000001
sg56
F2.4100000000000001
sg57
F47.450000000000003
sg58
F0.0
sba(i__main__
Pocket
p251
(dp252
g3
F1.0
sg4
F0.71999999999999997
sg5
F0.42999999999999999
sg6
F0.0
sg7
F0.87
sg8
F38.0
sg9
F34.780000000000001
sg10
F0.0
sg11
F27.449999999999999
sg12
F1.0
sg13
F10.949999999999999
sg14
F194.19999999999999
sg15
F1.0
sg16
S'PEP'
p253
sg18
F0.0
sg19
F0.0
sg20
F2.0
sg21
S'1jwf_unbound.pdb'
p254
sg23
F0.0
sg24
F1.0
sg25
F0.76000000000000001
sg26
F3.3799999999999999
sg27
F3.0
sg28
F4.2599999999999998
sg29
F0.0
sg30
F0.23000000000000001
sg31
F0.16
sg32
F0.0
sg33
F0.0
sg34
F0.0
sg35
F1.0
sg36
F0.85999999999999999
sg37
F1.0
sg38
F8.3399999999999999
sg39
F-2.0
sg40
F0.0
sg41
F0.59999999999999998
sg42
F131.63
sg43
F0.0
sg44
F0.0
sg45
F0.0
sg46
F0.76000000000000001
sg47
F0.0
sg48
F1.0
sg49
F556.11000000000001
sg50
F0.0
sg51
F3.1200000000000001
sg52
F0.0
sg53
F0.0
sg54
F-1.25
sg55
F451.93000000000001
sg56
F3.3999999999999999
sg57
F62.57
sg58
F0.0
sba(i__main__
Pocket
p255
(dp256
g3
F0.22
sg4
F0.67000000000000004
sg5
F0.85999999999999999
sg6
F0.0
sg7
F0.90000000000000002
sg8
F37.0
sg9
F41.670000000000002
sg10
F1.0
sg11
F6.0
sg12
F1.0
sg13
F15.41
sg14
F101.01000000000001
sg15
F0.0
sg16
S'PEP'
p257
sg18
F2.0
sg19
F0.0
sg20
F1.0
sg21
S'1jwf_unbound.pdb'
p258
sg23
F0.0
sg24
F0.0
sg25
F0.19
sg26
F4.0
sg27
F6.0
sg28
F3.46
sg29
F0.0
sg30
F0.080000000000000002
sg31
F0.48999999999999999
sg32
F0.0
sg33
F0.0
sg34
F1.0
sg35
F1.0
sg36
F0.83999999999999997
sg37
F1.0
sg38
F8.6899999999999995
sg39
F-1.0
sg40
F2.0
sg41
F0.44
sg42
F28.98
sg43
F0.0
sg44
F0.0
sg45
F0.0
sg46
F0.19
sg47
F0.0
sg48
F1.0
sg49
F173.49000000000001
sg50
F1.0
sg51
F34.170000000000002
sg52
F0.0
sg53
F0.0
sg54
F-1.25
sg55
F451.93000000000001
sg56
F3.1800000000000002
sg57
F72.030000000000001
sg58
F0.0
sba(i__main__
Pocket
p259
(dp260
g3
F0.46999999999999997
sg4
F0.65000000000000002
sg5
F0.70999999999999996
sg6
F0.0
sg7
F0.72999999999999998
sg8
F38.0
sg9
F39.130000000000003
sg10
F1.0
sg11
F13.0
sg12
F0.0
sg13
F17.699999999999999
sg14
F190.59999999999999
sg15
F0.0
sg16
S'PEP'
p261
sg18
F0.0
sg19
F0.0
sg20
F0.0
sg21
S'1jwf_unbound.pdb'
p262
sg23
F0.0
sg24
F1.0
sg25
F0.37
sg26
F3.6699999999999999
sg27
F5.0
sg28
F3.9399999999999999
sg29
F1.0
sg30
F0.02
sg31
F0.56000000000000005
sg32
F0.0
sg33
F0.0
sg34
F0.0
sg35
F0.0
sg36
F0.85999999999999999
sg37
F2.0
sg38
F6.8600000000000003
sg39
F-2.0
sg40
F0.0
sg41
F0.5
sg42
F108.69
sg43
F0.0
sg44
F0.0
sg45
F0.0
sg46
F0.37
sg47
F1.0
sg48
F0.0
sg49
F353.31999999999999
sg50
F0.0
sg51
F-10.33
sg52
F0.0
sg53
F0.0
sg54
F-1.25
sg55
F451.93000000000001
sg56
F3.1000000000000001
sg57
F81.920000000000002
sg58
F0.0
sba(i__main__
Pocket
p263
(dp264
g3
F0.97999999999999998
sg4
F0.70999999999999996
sg5
F0.70999999999999996
sg6
F1.0
sg7
F0.83999999999999997
sg8
F42.0
sg9
F33.329999999999998
sg10
F1.0
sg11
F26.789999999999999
sg12
F0.0
sg13
F19.710000000000001
sg14
F227.41999999999999
sg15
F0.0
sg16
S'PEP'
p265
sg18
F1.0
sg19
F0.0
sg20
F0.0
sg21
S'1jwf_unbound.pdb'
p266
sg23
F0.0
sg24
F1.0
sg25
F0.67000000000000004
sg26
F4.4299999999999997
sg27
F5.0
sg28
F4.3399999999999999
sg29
F0.0
sg30
F0.63
sg31
F0.27000000000000002
sg32
F0.0
sg33
F0.0
sg34
F0.0
sg35
F0.0
sg36
F0.94999999999999996
sg37
F0.0
sg38
F8.0600000000000005
sg39
F0.0
sg40
F0.0
sg41
F0.60999999999999999
sg42
F161.81999999999999
sg43
F0.0
sg44
F0.0
sg45
F0.0
sg46
F0.67000000000000004
sg47
F1.0
sg48
F0.0
sg49
F655.39999999999998
sg50
F0.0
sg51
F31.57
sg52
F1.0
sg53
F0.0
sg54
F-1.25
sg55
F451.93000000000001
sg56
F3.3399999999999999
sg57
F65.599999999999994
sg58
F1.0
sba(i__main__
Pocket
p267
(dp268
g3
F0.70999999999999996
sg4
F0.90000000000000002
sg5
F0.45000000000000001
sg6
F0.0
sg7
F1.0
sg8
F52.0
sg9
F43.329999999999998
sg10
F1.0
sg11
F19.0
sg12
F0.0
sg13
F3.1800000000000002
sg14
F280.13
sg15
F0.0
sg16
S'PEP'
p269
sg18
F0.0
sg19
F1.0
sg20
F1.0
sg21
S'1lvb_unbound.pdb'
p270
sg23
F30.77
sg24
F0.0
sg25
F0.38
sg26
F4.9000000000000004
sg27
F5.0
sg28
F4.3899999999999997
sg29
F0.0
sg30
F0.26000000000000001
sg31
F0.62
sg32
F0.0
sg33
F1.0
sg34
F0.0
sg35
F1.0
sg36
F0.93000000000000005
sg37
F0.0
sg38
F10.41
sg39
F3.0
sg40
F1.0
sg41
F0.60999999999999999
sg42
F178.72999999999999
sg43
F0.31
sg44
F1.0
sg45
F1.0
sg46
F0.38
sg47
F2.0
sg48
F1.0
sg49
F846.72000000000003
sg50
F1.0
sg51
F42.700000000000003
sg52
F1.0
sg53
F0.0
sg54
F1.1299999999999999
sg55
F568.79999999999995
sg56
F4.3899999999999997
sg57
F101.40000000000001
sg58
F0.0
sba(i__main__
Pocket
p271
(dp272
g3
F0.71999999999999997
sg4
F0.60999999999999999
sg5
F0.55000000000000004
sg6
F1.0
sg7
F0.78000000000000003
sg8
F45.0
sg9
F37.93
sg10
F0.0
sg11
F19.050000000000001
sg12
F0.0
sg13
F6.6600000000000001
sg14
F120.78
sg15
F3.0
sg16
S'PEP'
p273
sg18
F1.0
sg19
F0.0
sg20
F0.0
sg21
S'1lvb_unbound.pdb'
p274
sg23
F11.539999999999999
sg24
F1.0
sg25
F0.46999999999999997
sg26
F4.7000000000000002
sg27
F6.0
sg28
F3.54
sg29
F0.0
sg30
F0.20000000000000001
sg31
F0.62
sg32
F0.0
sg33
F0.0
sg34
F0.0
sg35
F0.0
sg36
F0.80000000000000004
sg37
F0.0
sg38
F7.9500000000000002
sg39
F0.0
sg40
F2.0
sg41
F0.5
sg42
F72.459999999999994
sg43
F0.02
sg44
F0.14000000000000001
sg45
F0.0
sg46
F0.46999999999999997
sg47
F0.0
sg48
F0.0
sg49
F187.78999999999999
sg50
F1.0
sg51
F35.5
sg52
F0.0
sg53
F1.0
sg54
F-0.93999999999999995
sg55
F568.79999999999995
sg56
F3.02
sg57
F48.329999999999998
sg58
F0.0
sba(i__main__
Pocket
p275
(dp276
g3
F0.38
sg4
F0.68999999999999995
sg5
F0.27000000000000002
sg6
F1.0
sg7
F0.83999999999999997
sg8
F40.0
sg9
F44.439999999999998
sg10
F1.0
sg11
F10.0
sg12
F0.0
sg13
F16.550000000000001
sg14
F208.55000000000001
sg15
F2.0
sg16
S'PEP'
p277
sg18
F0.0
sg19
F1.0
sg20
F1.0
sg21
S'1lvb_unbound.pdb'
p278
sg23
F0.0
sg24
F0.0
sg25
F0.28000000000000003
sg26
F4.5499999999999998
sg27
F3.0
sg28
F4.2800000000000002
sg29
F0.0
sg30
F0.070000000000000007
sg31
F0.57999999999999996
sg32
F0.0
sg33
F0.0
sg34
F0.0
sg35
F1.0
sg36
F0.70999999999999996
sg37
F0.0
sg38
F8.6199999999999992
sg39
F1.0
sg40
F0.0
sg41
F0.62
sg42
F61.590000000000003
sg43
F0.0
sg44
F0.0
sg45
F0.0
sg46
F0.28000000000000003
sg47
F0.0
sg48
F3.0
sg49
F544.58000000000004
sg50
F1.0
sg51
F45.909999999999997
sg52
F0.0
sg53
F0.0
sg54
F-1.25
sg55
F568.79999999999995
sg56
F3.3799999999999999
sg57
F146.96000000000001
sg58
F0.0
sba(i__main__
Pocket
p279
(dp280
g3
F1.0
sg4
F0.84999999999999998
sg5
F0.55000000000000004
sg6
F1.0
sg7
F0.81000000000000005
sg8
F56.0
sg9
F30.300000000000001
sg10
F1.0
sg11
F26.600000000000001
sg12
F0.0
sg13
F25.079999999999998
sg14
F216.33000000000001
sg15
F1.0
sg16
S'PEP'
p281
sg18
F0.0
sg19
F0.0
sg20
F1.0
sg21
S'1lvb_unbound.pdb'
p282
sg23
F0.0
sg24
F0.0
sg25
F0.54000000000000004
sg26
F3.6899999999999999
sg27
F6.0
sg28
F3.71
sg29
F2.0
sg30
F0.44
sg31
F0.26000000000000001
sg32
F1.0
sg33
F0.0
sg34
F2.0
sg35
F0.0
sg36
F1.0
sg37
F0.0
sg38
F8.3000000000000007
sg39
F2.0
sg40
F1.0
sg41
F0.51000000000000001
sg42
F128.00999999999999
sg43
F0.0
sg44
F0.0
sg45
F0.0
sg46
F0.54000000000000004
sg47
F2.0
sg48
F0.0
sg49
F483.05000000000001
sg50
F1.0
sg51
F23.0
sg52
F0.0
sg53
F0.0
sg54
F-1.25
sg55
F568.79999999999995
sg56
F4.1299999999999999
sg57
F88.319999999999993
sg58
F0.0
sba(i__main__
Pocket
p283
(dp284
g3
F0.29999999999999999
sg4
F0.53000000000000003
sg5
F0.55000000000000004
sg6
F0.0
sg7
F0.67000000000000004
sg8
F37.0
sg9
F47.829999999999998
sg10
F0.0
sg11
F8.0
sg12
F0.0
sg13
F25.239999999999998
sg14
F140.37
sg15
F0.0
sg16
S'PEP'
p285
sg18
F2.0
sg19
F1.0
sg20
F1.0
sg21
S'1lvb_unbound.pdb'
p286
sg23
F0.0
sg24
F0.0
sg25
F0.23999999999999999
sg26
F4.5599999999999996
sg27
F6.0
sg28
F3.6299999999999999
sg29
F1.0
sg30
F0.029999999999999999
sg31
F0.19
sg32
F1.0
sg33
F0.0
sg34
F0.0
sg35
F0.0
sg36
F0.65000000000000002
sg37
F0.0
sg38
F6.6399999999999997
sg39
F1.0
sg40
F2.0
sg41
F0.56000000000000005
sg42
F53.140000000000001
sg43
F0.0
sg44
F0.0
sg45
F0.0
sg46
F0.23999999999999999
sg47
F0.0
sg48
F0.0
sg49
F338.91000000000003
sg50
F0.0
sg51
F28.890000000000001
sg52
F1.0
sg53
F0.0
sg54
F-1.25
sg55
F568.79999999999995
sg56
F2.6099999999999999
sg57
F87.230000000000004
sg58
F0.0
sba(i__main__
Pocket
p287
(dp288
g3
F0.45000000000000001
sg4
F0.84999999999999998
sg5
F0.45000000000000001
sg6
F0.0
sg7
F0.98999999999999999
sg8
F54.0
sg9
F50.0
sg10
F2.0
sg11
F11.85
sg12
F1.0
sg13
F26.329999999999998
sg14
F317.45999999999998
sg15
F0.0
sg16
S'PEP'
p289
sg18
F0.0
sg19
F1.0
sg20
F1.0
sg21
S'1lvb_unbound.pdb'
p290
sg23
F0.0
sg24
F1.0
sg25
F0.23999999999999999
sg26
F3.9199999999999999
sg27
F5.0
sg28
F4.6399999999999997
sg29
F1.0
sg30
F0.02
sg31
F0.39000000000000001
sg32
F0.0
sg33
F0.0
sg34
F1.0
sg35
F0.0
sg36
F0.95999999999999996
sg37
F1.0
sg38
F10.24
sg39
F0.0
sg40
F0.0
sg41
F0.64000000000000001
sg42
F113.52
sg43
F0.0
sg44
F0.0
sg45
F0.0
sg46
F0.23999999999999999
sg47
F1.0
sg48
F1.0
sg49
F859.19000000000005
sg50
F1.0
sg51
F19.829999999999998
sg52
F0.0
sg53
F0.0
sg54
F-1.25
sg55
F568.79999999999995
sg56
F4.1600000000000001
sg57
F203.94
sg58
F0.0
sba(i__main__
Pocket
p291
(dp292
g3
F0.16
sg4
F0.83999999999999997
sg5
F0.55000000000000004
sg6
F0.0
sg7
F0.97999999999999998
sg8
F38.0
sg9
F40.740000000000002
sg10
F0.0
sg11
F4.3300000000000001
sg12
F0.0
sg13
F28.879999999999999
sg14
F238.66
sg15
F3.0
sg16
S'PEP'
p293
sg18
F0.0
sg19
F1.0
sg20
F1.0
sg21
S'1lvb_unbound.pdb'
p294
sg23
F0.0
sg24
F0.0
sg25
F0.16
sg26
F4.0800000000000001
sg27
F6.0
sg28
F4.21
sg29
F0.0
sg30
F0.02
sg31
F0.44
sg32
F0.0
sg33
F0.0
sg34
F0.0
sg35
F1.0
sg36
F0.67000000000000004
sg37
F2.0
sg38
F10.19
sg39
F0.0
sg40
F1.0
sg41
F0.64000000000000001
sg42
F131.63
sg43
F0.0
sg44
F0.0
sg45
F0.0
sg46
F0.16
sg47
F1.0
sg48
F0.0
sg49
F902.13
sg50
F1.0
sg51
F21.420000000000002
sg52
F1.0
sg53
F0.0
sg54
F-1.25
sg55
F568.79999999999995
sg56
F4.0800000000000001
sg57
F107.03
sg58
F0.0
sba(i__main__
Pocket
p295
(dp296
g3
F0.29999999999999999
sg4
F0.80000000000000004
sg5
F0.55000000000000004
sg6
F0.0
sg7
F0.91000000000000003
sg8
F39.0
sg9
F45.829999999999998
sg10
F0.0
sg11
F8.0
sg12
F0.0
sg13
F33.060000000000002
sg14
F317.75
sg15
F0.0
sg16
S'PEP'
p297
sg18
F2.0
sg19
F0.0
sg20
F0.0
sg21
S'1lvb_unbound.pdb'
p298
sg23
F0.0
sg24
F0.0
sg25
F0.23000000000000001
sg26
F4.1100000000000003
sg27
F6.0
sg28
F4.6399999999999997
sg29
F1.0
sg30
F0.050000000000000003
sg31
F0.44
sg32
F0.0
sg33
F0.0
sg34
F1.0
sg35
F1.0
sg36
F0.68999999999999995
sg37
F0.0
sg38
F9.3599999999999994
sg39
F0.0
sg40
F1.0
sg41
F0.63
sg42
F121.97
sg43
F0.0
sg44
F0.0
sg45
F0.0
sg46
F0.23000000000000001
sg47
F0.0
sg48
F1.0
sg49
F755.64999999999998
sg50
F0.0
sg51
F36.890000000000001
sg52
F1.0
sg53
F0.0
sg54
F-1.25
sg55
F568.79999999999995
sg56
F3.8999999999999999
sg57
F195.78
sg58
F1.0
sba(i__main__
Pocket
p299
(dp300
g3
F0.040000000000000001
sg4
F0.75
sg5
F0.27000000000000002
sg6
F0.0
sg7
F0.81999999999999995
sg8
F42.0
sg9
F59.259999999999998
sg10
F0.0
sg11
F1.0
sg12
F0.0
sg13
F38.020000000000003
sg14
F198.44999999999999
sg15
F0.0
sg16
S'PEP'
p301
sg18
F1.0
sg19
F0.0
sg20
F3.0
sg21
S'1lvb_unbound.pdb'
p302
sg23
F0.0
sg24
F0.0
sg25
F0.050000000000000003
sg26
F3.29
sg27
F3.0
sg28
F3.8799999999999999
sg29
F0.0
sg30
F0.0
sg31
F0.52000000000000002
sg32
F0.0
sg33
F0.0
sg34
F0.0
sg35
F0.0
sg36
F0.75
sg37
F2.0
sg38
F8.3800000000000008
sg39
F-2.0
sg40
F0.0
sg41
F0.56000000000000005
sg42
F80.909999999999997
sg43
F0.0
sg44
F0.0
sg45
F0.0
sg46
F0.050000000000000003
sg47
F0.0
sg48
F1.0
sg49
F568.33000000000004
sg50
F0.0
sg51
F-21.859999999999999
sg52
F0.0
sg53
F0.0
sg54
F-1.25
sg55
F568.79999999999995
sg56
F3.6600000000000001
sg57
F117.54000000000001
sg58
F0.0
sba(i__main__
Pocket
p303
(dp304
g3
F1.0
sg4
F0.93999999999999995
sg5
F0.64000000000000001
sg6
F1.0
sg7
F0.94999999999999996
sg8
F75.0
sg9
F40.479999999999997
sg10
F1.0
sg11
F20.649999999999999
sg12
F0.0
sg13
F13.470000000000001
sg14
F327.48000000000002
sg15
F2.0
sg16
S'PEP'
p305
sg18
F0.0
sg19
F0.0
sg20
F2.0
sg21
S'2h3l_unbound.pdb'
p306
sg23
F0.0
sg24
F1.0
sg25
F0.40999999999999998
sg26
F4.2000000000000002
sg27
F7.0
sg28
F3.7400000000000002
sg29
F1.0
sg30
F0.48999999999999999
sg31
F0.14999999999999999
sg32
F0.0
sg33
F0.0
sg34
F0.0
sg35
F0.0
sg36
F0.71999999999999997
sg37
F1.0
sg38
F15.58
sg39
F0.0
sg40
F1.0
sg41
F0.46000000000000002
sg42
F158.19999999999999
sg43
F0.0
sg44
F0.0
sg45
F0.0
sg46
F0.40999999999999998
sg47
F2.0
sg48
F1.0
sg49
F572.89999999999998
sg50
F2.0
sg51
F22.800000000000001
sg52
F0.0
sg53
F0.0
sg54
F-1.25
sg55
F809.08000000000004
sg56
F5.7800000000000002
sg57
F169.28
sg58
F0.0
sba(i__main__
Pocket
p307
(dp308
g3
F0.53000000000000003
sg4
F1.0
sg5
F1.0
sg6
F2.0
sg7
F1.0
sg8
F104.0
sg9
F53.57
sg10
F1.0
sg11
F11.0
sg12
F0.0
sg13
F14.880000000000001
sg14
F458.73000000000002
sg15
F0.0
sg16
S'PEP'
p309
sg18
F1.0
sg19
F0.0
sg20
F1.0
sg21
S'2h3l_unbound.pdb'
p310
sg23
F0.0
sg24
F2.0
sg25
F0.17000000000000001
sg26
F3.5699999999999998
sg27
F11.0
sg28
F3.6600000000000001
sg29
F3.0
sg30
F0.050000000000000003
sg31
F0.17999999999999999
sg32
F0.0
sg33
F0.0
sg34
F0.0
sg35
F0.0
sg36
F1.0
sg37
F2.0
sg38
F16.43
sg39
F-3.0
sg40
F0.0
sg41
F0.51000000000000001
sg42
F152.16
sg43
F0.0
sg44
F0.0
sg45
F0.0
sg46
F0.17000000000000001
sg47
F1.0
sg48
F0.0
sg49
F929.78999999999996
sg50
F1.0
sg51
F-10.43
sg52
F0.0
sg53
F0.0
sg54
F-1.25
sg55
F809.08000000000004
sg56
F6.1600000000000001
sg57
F306.56999999999999
sg58
F0.0
sba(i__main__
Pocket
p311
(dp312
g3
F1.0
sg4
F0.79000000000000004
sg5
F0.20000000000000001
sg6
F0.0
sg7
F0.68000000000000005
sg8
F40.0
sg9
F32.140000000000001
sg10
F2.0
sg11
F22.0
sg12
F0.0
sg13
F2.0600000000000001
sg14
F296.29000000000002
sg15
F0.0
sg16
S'PEP'
p313
sg18
F0.0
sg19
F0.0
sg20
F1.0
sg21
S'1n7e_unbound.pdb'
p314
sg23
F44.439999999999998
sg24
F0.0
sg25
F0.56999999999999995
sg26
F3.3300000000000001
sg27
F1.0
sg28
F4.6100000000000003
sg29
F0.0
sg30
F0.52000000000000002
sg31
F0.17000000000000001
sg32
F0.0
sg33
F1.0
sg34
F3.0
sg35
F1.0
sg36
F0.64000000000000001
sg37
F0.0
sg38
F7.3499999999999996
sg39
F0.0
sg40
F0.0
sg41
F0.67000000000000004
sg42
F199.25999999999999
sg43
F1.0
sg44
F1.0
sg45
F1.0
sg46
F0.56999999999999995
sg47
F0.0
sg48
F1.0
sg49
F604.05999999999995
sg50
F1.0
sg51
F37.670000000000002
sg52
F0.0
sg53
F0.0
sg54
F2.0
sg55
F662.61000000000001
sg56
F3.75
sg57
F97.030000000000001
sg58
F0.0
sba(i__main__
Pocket
p315
(dp316
g3
F0.27000000000000002
sg4
F0.83999999999999997
sg5
F0.80000000000000004
sg6
F3.0
sg7
F0.78000000000000003
sg8
F52.0
sg9
F44.439999999999998
sg10
F1.0
sg11
F6.0
sg12
F0.0
sg13
F6.9800000000000004
sg14
F268.57999999999998
sg15
F0.0
sg16
S'PEP'
p317
sg18
F0.0
sg19
F0.0
sg20
F1.0
sg21
S'1n7e_unbound.pdb'
p318
sg23
F9.5199999999999996
sg24
F0.0
sg25
F0.13
sg26
F4.25
sg27
F4.0
sg28
F4.4900000000000002
sg29
F0.0
sg30
F0.029999999999999999
sg31
F0.41999999999999998
sg32
F0.0
sg33
F0.0
sg34
F0.0
sg35
F0.0
sg36
F0.83999999999999997
sg37
F1.0
sg38
F8.5
sg39
F-1.0
sg40
F0.0
sg41
F0.65000000000000002
sg42
F149.75
sg43
F0.0
sg44
F0.0
sg45
F0.0
sg46
F0.13
sg47
F0.0
sg48
F1.0
sg49
F778.98000000000002
sg50
F1.0
sg51
F17.75
sg52
F0.0
sg53
F0.0
sg54
F-1.25
sg55
F662.61000000000001
sg56
F4.0
sg57
F118.83
sg58
F0.0
sba(i__main__
Pocket
p319
(dp320
g3
F0.20999999999999999
sg4
F1.0
sg5
F0.80000000000000004
sg6
F1.0
sg7
F1.0
sg8
F46.0
sg9
F44.439999999999998
sg10
F0.0
sg11
F4.5700000000000003
sg12
F1.0
sg13
F13.800000000000001
sg14
F329.81999999999999
sg15
F0.0
sg16
S'PEP'
p321
sg18
F0.0
sg19
F0.0
sg20
F1.0
sg21
S'1n7e_unbound.pdb'
p322
sg23
F0.0
sg24
F0.0
sg25
F0.14999999999999999
sg26
F3.5600000000000001
sg27
F4.0
sg28
F4.0
sg29
F0.0
sg30
F0.029999999999999999
sg31
F0.28000000000000003
sg32
F0.0
sg33
F0.0
sg34
F1.0
sg35
F1.0
sg36
F0.73999999999999999
sg37
F0.0
sg38
F11.23
sg39
F2.0
sg40
F0.0
sg41
F0.48999999999999999
sg42
F171.47999999999999
sg43
F0.0
sg44
F0.0
sg45
F0.0
sg46
F0.14999999999999999
sg47
F2.0
sg48
F1.0
sg49
F770.37
sg50
F1.0
sg51
F20.890000000000001
sg52
F0.0
sg53
F0.0
sg54
F-1.25
sg55
F662.61000000000001
sg56
F4.7800000000000002
sg57
F158.34
sg58
F0.0
sba(i__main__
Pocket
p323
(dp324
g3
F0.93999999999999995
sg4
F0.89000000000000001
sg5
F1.0
sg6
F1.0
sg7
F0.93000000000000005
sg8
F62.0
sg9
F36.359999999999999
sg10
F2.0
sg11
F20.640000000000001
sg12
F1.0
sg13
F15.15
sg14
F271.57999999999998
sg15
F1.0
sg16
S'PEP'
p325
sg18
F1.0
sg19
F0.0
sg20
F1.0
sg21
S'1n7e_unbound.pdb'
p326
sg23
F0.0
sg24
F0.0
sg25
F0.34999999999999998
sg26
F3.3599999999999999
sg27
F5.0
sg28
F3.9100000000000001
sg29
F1.0
sg30
F0.68000000000000005
sg31
F0.19
sg32
F0.0
sg33
F0.0
sg34
F2.0
sg35
F0.0
sg36
F1.0
sg37
F0.0
sg38
F10.33
sg39
F2.0
sg40
F0.0
sg41
F0.53000000000000003
sg42
F144.91999999999999
sg43
F0.0
sg44
F0.0
sg45
F0.0
sg46
F0.34999999999999998
sg47
F2.0
sg48
F0.0
sg49
F534.83000000000004
sg50
F2.0
sg51
F25.93
sg52
F0.0
sg53
F0.0
sg54
F-1.25
sg55
F662.61000000000001
sg56
F4.2400000000000002
sg57
F126.67
sg58
F0.0
sba(i__main__
Pocket
p327
(dp328
g3
F0.97999999999999998
sg4
F1.0
sg5
F0.75
sg6
F1.0
sg7
F1.0
sg8
F126.0
sg9
F26.98
sg10
F1.0
sg11
F45.969999999999999
sg12
F1.0
sg13
F2.2999999999999998
sg14
F551.38999999999999
sg15
F1.0
sg16
S'PEP'
p329
sg18
F0.0
sg19
F0.0
sg20
F1.0
sg21
S'2x8d_unbound.pdb'
p330
sg23
F75.409999999999997
sg24
F1.0
sg25
F0.59999999999999998
sg26
F4.0599999999999996
sg27
F9.0
sg28
F4.2800000000000002
sg29
F1.0
sg30
F0.48999999999999999
sg31
F0.44
sg32
F2.0
sg33
F1.0
sg34
F1.0
sg35
F0.0
sg36
F1.0
sg37
F3.0
sg38
F15.93
sg39
F-4.0
sg40
F2.0
sg41
F0.56999999999999995
sg42
F280.17000000000002
sg43
F0.59999999999999998
sg44
F1.0
sg45
F1.0
sg46
F0.59999999999999998
sg47
F0.0
sg48
F0.0
sg49
F1269.0799999999999
sg50
F0.0
sg51
F19.879999999999999
sg52
F0.0
sg53
F0.0
sg54
F1.5
sg55
F295.13
sg56
F6.9199999999999999
sg57
F271.22000000000003
sg58
F1.0
sba(i__main__
Pocket
p331
(dp332
g3
F0.52000000000000002
sg4
F0.73999999999999999
sg5
F1.0
sg6
F1.0
sg7
F0.68999999999999995
sg8
F78.0
sg9
F40.909999999999997
sg10
F4.0
sg11
F24.469999999999999
sg12
F1.0
sg13
F15.19
sg14
F296.56999999999999
sg15
F1.0
sg16
S'PEP'
p333
sg18
F1.0
sg19
F2.0
sg20
F0.0
sg21
S'2x8d_unbound.pdb'
p334
sg23
F0.0
sg24
F0.0
sg25
F0.38
sg26
F4.1500000000000004
sg27
F12.0
sg28
F3.77
sg29
F1.0
sg30
F0.11
sg31
F0.33000000000000002
sg32
F1.0
sg33
F0.0
sg34
F1.0
sg35
F0.0
sg36
F0.62
sg37
F4.0
sg38
F10.779999999999999
sg39
F-1.0
sg40
F2.0
sg41
F0.44
sg42
F156.99000000000001
sg43
F0.0
sg44
F0.0
sg45
F0.0
sg46
F0.38
sg47
F1.0
sg48
F0.0
sg49
F516.99000000000001
sg50
F0.0
sg51
F22.75
sg52
F0.0
sg53
F0.0
sg54
F-1.25
sg55
F295.13
sg56
F5.1399999999999997
sg57
F139.58000000000001
sg58
F0.0
sba(i__main__
Pocket
p335
(dp336
g3
F0.13
sg4
F0.41999999999999998
sg5
F0.5
sg6
F0.0
sg7
F0.46999999999999997
sg8
F39.0
sg9
F44.0
sg10
F1.0
sg11
F6.0
sg12
F0.0
sg13
F17.359999999999999
sg14
F119.29000000000001
sg15
F1.0
sg16
S'PEP'
p337
sg18
F0.0
sg19
F2.0
sg20
F0.0
sg21
S'2x8d_unbound.pdb'
p338
sg23
F0.0
sg24
F1.0
sg25
F0.17999999999999999
sg26
F5.5
sg27
F6.0
sg28
F3.29
sg29
F0.0
sg30
F0.029999999999999999
sg31
F0.28000000000000003
sg32
F0.0
sg33
F0.0
sg34
F0.0
sg35
F0.0
sg36
F0.29999999999999999
sg37
F0.0
sg38
F6.9400000000000004
sg39
F2.0
sg40
F2.0
sg41
F0.40999999999999998
sg42
F59.170000000000002
sg43
F0.0
sg44
F0.0
sg45
F0.0
sg46
F0.17999999999999999
sg47
F1.0
sg48
F0.0
sg49
F165.72999999999999
sg50
F0.0
sg51
F34.119999999999997
sg52
F0.0
sg53
F0.0
sg54
F-1.25
sg55
F295.13
sg56
F2.9500000000000002
sg57
F60.109999999999999
sg58
F0.0
sba(i__main__
Pocket
p339
(dp340
g3
F0.56000000000000005
sg4
F0.73999999999999999
sg5
F0.82999999999999996
sg6
F1.0
sg7
F0.78000000000000003
sg8
F76.0
sg9
F36.590000000000003
sg10
F1.0
sg11
F26.469999999999999
sg12
F1.0
sg13
F19.280000000000001
sg14
F320.38
sg15
F0.0
sg16
S'PEP'
p341
sg18
F0.0
sg19
F2.0
sg20
F0.0
sg21
S'2x8d_unbound.pdb'
p342
sg23
F0.0
sg24
F1.0
sg25
F0.39000000000000001
sg26
F4.29
sg27
F10.0
sg28
F3.9399999999999999
sg29
F2.0
sg30
F0.050000000000000003
sg31
F0.45000000000000001
sg32
F1.0
sg33
F0.0
sg34
F1.0
sg35
F0.0
sg36
F0.59999999999999998
sg37
F1.0
sg38
F12.18
sg39
F2.0
sg40
F1.0
sg41
F0.5
sg42
F185.56
sg43
F0.0
sg44
F0.0
sg45
F0.0
sg46
F0.39000000000000001
sg47
F1.0
sg48
F0.0
sg49
F615.86000000000001
sg50
F0.0
sg51
F7.79
sg52
F0.0
sg53
F1.0
sg54
F-1.25
sg55
F295.13
sg56
F5.1600000000000001
sg57
F134.81999999999999
sg58
F0.0
sba(i__main__
Pocket
p343
(dp344
g3
F0.65000000000000002
sg4
F0.64000000000000001
sg5
F0.82999999999999996
sg6
F1.0
sg7
F0.66000000000000003
sg8
F77.0
sg9
F42.859999999999999
sg10
F2.0
sg11
F30.559999999999999
sg12
F2.0
sg13
F31.699999999999999
sg14
F101.2
sg15
F1.0
sg16
S'PEP'
p345
sg18
F1.0
sg19
F0.0
sg20
F1.0
sg21
S'2x8d_unbound.pdb'
p346
sg23
F0.0
sg24
F0.0
sg25
F0.46999999999999997
sg26
F3.8900000000000001
sg27
F10.0
sg28
F3.3999999999999999
sg29
F2.0
sg30
F0.17000000000000001
sg31
F0.070000000000000007
sg32
F1.0
sg33
F0.0
sg34
F1.0
sg35
F2.0
sg36
F0.60999999999999999
sg37
F0.0
sg38
F10.15
sg39
F2.0
sg40
F2.0
sg41
F0.44
sg42
F68.989999999999995
sg43
F0.0
sg44
F0.0
sg45
F0.0
sg46
F0.46999999999999997
sg47
F1.0
sg48
F0.0
sg49
F286.38
sg50
F0.0
sg51
F27.890000000000001
sg52
F0.0
sg53
F1.0
sg54
F-1.25
sg55
F295.13
sg56
F4.4299999999999997
sg57
F32.210000000000001
sg58
F0.0
sba(i__main__
Pocket
p347
(dp348
g3
F0.12
sg4
F0.5
sg5
F0.5
sg6
F1.0
sg7
F0.56999999999999995
sg8
F40.0
sg9
F46.149999999999999
sg10
F0.0
sg11
F5.71
sg12
F1.0
sg13
F31.890000000000001
sg14
F232.05000000000001
sg15
F1.0
sg16
S'PEP'
p349
sg18
F0.0
sg19
F0.0
sg20
F2.0
sg21
S'2x8d_unbound.pdb'
p350
sg23
F0.0
sg24
F0.0
sg25
F0.17000000000000001
sg26
F3.2999999999999998
sg27
F6.0
sg28
F3.6800000000000002
sg29
F2.0
sg30
F0.01
sg31
F0.26000000000000001
sg32
F0.0
sg33
F0.0
sg34
F0.0
sg35
F0.0
sg36
F0.31
sg37
F0.0
sg38
F8.6199999999999992
sg39
F3.0
sg40
F0.0
sg41
F0.48999999999999999
sg42
F86.950000000000003
sg43
F0.0
sg44
F0.0
sg45
F0.0
sg46
F0.17000000000000001
sg47
F3.0
sg48
F0.0
sg49
F296.49000000000001
sg50
F0.0
sg51
F-4.4000000000000004
sg52
F0.0
sg53
F0.0
sg54
F-1.25
sg55
F295.13
sg56
F3.5
sg57
F145.09999999999999
sg58
F0.0
sba(i__main__
Pocket
p351
(dp352
g3
F0.78000000000000003
sg4
F0.45000000000000001
sg5
F0.17000000000000001
sg6
F1.0
sg7
F0.5
sg8
F51.0
sg9
F29.629999999999999
sg10
F1.0
sg11
F36.950000000000003
sg12
F1.0
sg13
F32.030000000000001
sg14
F223.63
sg15
F1.0
sg16
S'PEP'
p353
sg18
F0.0
sg19
F0.0
sg20
F0.0
sg21
S'2x8d_unbound.pdb'
p354
sg23
F0.0
sg24
F0.0
sg25
F0.75
sg26
F3.5600000000000001
sg27
F2.0
sg28
F3.98
sg29
F0.0
sg30
F0.22
sg31
F0.23000000000000001
sg32
F1.0
sg33
F0.0
sg34
F1.0
sg35
F0.0
sg36
F0.40000000000000002
sg37
F1.0
sg38
F7.54
sg39
F-1.0
sg40
F0.0
sg41
F0.56999999999999995
sg42
F176.31
sg43
F0.0
sg44
F0.0
sg45
F0.0
sg46
F0.75
sg47
F0.0
sg48
F0.0
sg49
F584.57000000000005
sg50
F2.0
sg51
F38.670000000000002
sg52
F0.0
sg53
F0.0
sg54
F-1.25
sg55
F295.13
sg56
F3.1299999999999999
sg57
F47.32
sg58
F0.0
sba(i__main__
Pocket
p355
(dp356
g3
F0.68999999999999995
sg4
F0.47999999999999998
sg5
F0.41999999999999998
sg6
F1.0
sg7
F0.58999999999999997
sg8
F55.0
sg9
F26.670000000000002
sg10
F4.0
sg11
F32.649999999999999
sg12
F0.0
sg13
F32.530000000000001
sg14
F216.75999999999999
sg15
F0.0
sg16
S'PEP'
p357
sg18
F0.0
sg19
F0.0
sg20
F0.0
sg21
S'2x8d_unbound.pdb'
p358
sg23
F0.0
sg24
F0.0
sg25
F0.62
sg26
F5.0999999999999996
sg27
F5.0
sg28
F4.1200000000000001
sg29
F0.0
sg30
F0.48999999999999999
sg31
F0.13
sg32
F0.0
sg33
F0.0
sg34
F0.0
sg35
F1.0
sg36
F0.42999999999999999
sg37
F0.0
sg38
F9.0500000000000007
sg39
F2.0
sg40
F1.0
sg41
F0.58999999999999997
sg42
F140.08000000000001
sg43
F0.0
sg44
F0.0
sg45
F0.0
sg46
F0.62
sg47
F1.0
sg48
F0.0
sg49
F620.16999999999996
sg50
F0.0
sg51
F58.700000000000003
sg52
F1.0
sg53
F1.0
sg54
F-1.25
sg55
F295.13
sg56
F3.3799999999999999
sg57
F76.670000000000002
sg58
F0.0
sba(i__main__
Pocket
p359
(dp360
g3
F1.0
sg4
F0.93999999999999995
sg5
F0.82999999999999996
sg6
F1.0
sg7
F1.0
sg8
F118.0
sg9
F36.670000000000002
sg10
F0.0
sg11
F47.109999999999999
sg12
F0.0
sg13
F38.009999999999998
sg14
F469.82999999999998
sg15
F0.0
sg16
S'PEP'
p361
sg18
F1.0
sg19
F0.0
sg20
F2.0
sg21
S'2x8d_unbound.pdb'
p362
sg23
F0.0
sg24
F2.0
sg25
F0.58999999999999997
sg26
F3.8799999999999999
sg27
F10.0
sg28
F4.0
sg29
F0.0
sg30
F0.47999999999999998
sg31
F0.11
sg32
F0.0
sg33
F0.0
sg34
F2.0
sg35
F1.0
sg36
F0.93999999999999995
sg37
F2.0
sg38
F15.960000000000001
sg39
F-3.0
sg40
F2.0
sg41
F0.53000000000000003
sg42
F289.82999999999998
sg43
F0.0
sg44
F0.0
sg45
F0.0
sg46
F0.58999999999999997
sg47
F1.0
sg48
F0.0
sg49
F1067.5599999999999
sg50
F3.0
sg51
F9.2899999999999991
sg52
F0.0
sg53
F0.0
sg54
F-1.25
sg55
F295.13
sg56
F6.5199999999999996
sg57
F180.0
sg58
F0.0
sba(i__main__
Pocket
p363
(dp364
g3
F0.40000000000000002
sg4
F0.58999999999999997
sg5
F0.41999999999999998
sg6
F0.0
sg7
F0.60999999999999999
sg8
F41.0
sg9
F37.039999999999999
sg10
F0.0
sg11
F18.699999999999999
sg12
F0.0
sg13
F43.020000000000003
sg14
F233.99000000000001
sg15
F1.0
sg16
S'PEP'
p365
sg18
F1.0
sg19
F1.0
sg20
F1.0
sg21
S'2x8d_unbound.pdb'
p366
sg23
F0.0
sg24
F1.0
sg25
F0.48999999999999999
sg26
F3.7799999999999998
sg27
F5.0
sg28
F3.6699999999999999
sg29
F0.0
sg30
F0.01
sg31
F0.080000000000000002
sg32
F0.0
sg33
F0.0
sg34
F0.0
sg35
F0.0
sg36
F0.32000000000000001
sg37
F2.0
sg38
F9.3699999999999992
sg39
F-2.0
sg40
F0.0
sg41
F0.46000000000000002
sg42
F130.41999999999999
sg43
F0.0
sg44
F0.0
sg45
F0.0
sg46
F0.48999999999999999
sg47
F0.0
sg48
F0.0
sg49
F525.71000000000004
sg50
F2.0
sg51
F-2.0
sg52
F0.0
sg53
F0.0
sg54
F-1.25
sg55
F295.13
sg56
F4.1200000000000001
sg57
F103.56999999999999
sg58
F0.0
sba(i__main__
Pocket
p367
(dp368
g3
F0.20999999999999999
sg4
F0.48999999999999999
sg5
F0.67000000000000004
sg6
F0.0
sg7
F0.52000000000000002
sg8
F36.0
sg9
F36.0
sg10
F1.0
sg11
F10.0
sg12
F0.0
sg13
F47.009999999999998
sg14
F82.980000000000004
sg15
F0.0
sg16
S'PEP'
p369
sg18
F0.0
sg19
F1.0
sg20
F0.0
sg21
S'2x8d_unbound.pdb'
p370
sg23
F0.0
sg24
F0.0
sg25
F0.31
sg26
F5.0
sg27
F8.0
sg28
F3.3199999999999998
sg29
F1.0
sg30
F0.040000000000000001
sg31
F0.28000000000000003
sg32
F0.0
sg33
F0.0
sg34
F0.0
sg35
F1.0
sg36
F0.28000000000000003
sg37
F1.0
sg38
F7.8499999999999996
sg39
F1.0
sg40
F0.0
sg41
F0.40000000000000002
sg42
F41.060000000000002
sg43
F0.0
sg44
F0.0
sg45
F0.0
sg46
F0.31
sg47
F1.0
sg48
F0.0
sg49
F142.83000000000001
sg50
F2.0
sg51
F31.91
sg52
F0.0
sg53
F0.0
sg54
F-1.25
sg55
F295.13
sg56
F3.4399999999999999
sg57
F41.920000000000002
sg58
F3.0
sba(i__main__
Pocket
p371
(dp372
g3
F0.25
sg4
F0.46999999999999997
sg5
F0.57999999999999996
sg6
F0.0
sg7
F0.60999999999999999
sg8
F40.0
sg9
F42.310000000000002
sg10
F1.0
sg11
F11.69
sg12
F1.0
sg13
F49.520000000000003
sg14
F272.81
sg15
F0.0
sg16
S'PEP'
p373
sg18
F0.0
sg19
F1.0
sg20
F0.0
sg21
S'2x8d_unbound.pdb'
p374
sg23
F0.0
sg24
F1.0
sg25
F0.32000000000000001
sg26
F4.7800000000000002
sg27
F7.0
sg28
F4.5499999999999998
sg29
F0.0
sg30
F0.02
sg31
F0.26000000000000001
sg32
F0.0
sg33
F0.0
sg34
F0.0
sg35
F0.0
sg36
F0.31
sg37
F1.0
sg38
F9.4299999999999997
sg39
F1.0
sg40
F1.0
sg41
F0.60999999999999999
sg42
F152.16
sg43
F0.0
sg44
F0.0
sg45
F0.0
sg46
F0.32000000000000001
sg47
F2.0
sg48
F0.0
sg49
F641.77999999999997
sg50
F0.0
sg51
F23.0
sg52
F0.0
sg53
F0.0
sg54
F-1.25
sg55
F295.13
sg56
F3.29
sg57
F120.65000000000001
sg58
F1.0
sba(i__main__
Pocket
p375
(dp376
g3
F0.60999999999999999
sg4
F0.42999999999999999
sg5
F0.29999999999999999
sg6
F0.0
sg7
F0.55000000000000004
sg8
F36.0
sg9
F37.5
sg10
F2.0
sg11
F19.0
sg12
F0.0
sg13
F2.3999999999999999
sg14
F278.86000000000001
sg15
F0.0
sg16
S'PEP'
p377
sg18
F0.0
sg19
F1.0
sg20
F1.0
sg21
S'1alv_unbound.pdb'
p378
sg23
F21.940000000000001
sg24
F0.0
sg25
F0.56000000000000005
sg26
F4.1200000000000001
sg27
F3.0
sg28
F4.3799999999999999
sg29
F0.0
sg30
F0.029999999999999999
sg31
F0.27000000000000002
sg32
F0.0
sg33
F1.0
sg34
F1.0
sg35
F0.0
sg36
F0.22
sg37
F1.0
sg38
F8.0500000000000007
sg39
F1.0
sg40
F0.0
sg41
F0.59999999999999998
sg42
F149.75
sg43
F0.68999999999999995
sg44
F1.0
sg45
F1.0
sg46
F0.56000000000000005
sg47
F1.0
sg48
F1.0
sg49
F620.37
sg50
F0.0
sg51
F22.75
sg52
F0.0
sg53
F0.0
sg54
F1.6200000000000001
sg55
F1828.55
sg56
F2.9700000000000002
sg57
F129.12
sg58
F0.0
sba(i__main__
Pocket
p379
(dp380
g3
F0.57999999999999996
sg4
F0.53000000000000003
sg5
F0.59999999999999998
sg6
F0.0
sg7
F0.67000000000000004
sg8
F36.0
sg9
F34.780000000000001
sg10
F0.0
sg11
F18.0
sg12
F0.0
sg13
F7.7000000000000002
sg14
F287.32999999999998
sg15
F2.0
sg16
S'PEP'
p381
sg18
F0.0
sg19
F1.0
sg20
F0.0
sg21
S'1alv_unbound.pdb'
p382
sg23
F8.6699999999999999
sg24
F0.0
sg25
F0.53000000000000003
sg26
F4.75
sg27
F6.0
sg28
F3.9500000000000002
sg29
F0.0
sg30
F0.059999999999999998
sg31
F0.52000000000000002
sg32
F0.0
sg33
F0.0
sg34
F0.0
sg35
F0.0
sg36
F0.22
sg37
F1.0
sg38
F10.0
sg39
F2.0
sg40
F1.0
sg41
F0.5
sg42
F163.03
sg43
F0.080000000000000002
sg44
F0.38
sg45
F0.0
sg46
F0.53000000000000003
sg47
F2.0
sg48
F0.0
sg49
F425.26999999999998
sg50
F0.0
sg51
F24.5
sg52
F0.0
sg53
F0.0
sg54
F-0.40000000000000002
sg55
F1828.55
sg56
F3.6099999999999999
sg57
F124.3
sg58
F1.0
sba(i__main__
Pocket
p383
(dp384
g3
F0.13
sg4
F0.64000000000000001
sg5
F1.0
sg6
F0.0
sg7
F0.80000000000000004
sg8
F44.0
sg9
F66.670000000000002
sg10
F0.0
sg11
F4.0
sg12
F0.0
sg13
F15.859999999999999
sg14
F180.84
sg15
F0.0
sg16
S'PEP'
p385
sg18
F1.0
sg19
F2.0
sg20
F1.0
sg21
S'1alv_unbound.pdb'
p386
sg23
F0.0
sg24
F0.0
sg25
F0.11
sg26
F3.5800000000000001
sg27
F10.0
sg28
F3.4500000000000002
sg29
F4.0
sg30
F0.02
sg31
F0.26000000000000001
sg32
F1.0
sg33
F0.0
sg34
F0.0
sg35
F1.0
sg36
F0.27000000000000002
sg37
F1.0
sg38
F12.17
sg39
F2.0
sg40
F0.0
sg41
F0.44
sg42
F57.969999999999999
sg43
F0.0
sg44
F0.0
sg45
F0.0
sg46
F0.11
sg47
F1.0
sg48
F0.0
sg49
F273.16000000000003
sg50
F0.0
sg51
F-13.92
sg52
F0.0
sg53
F0.0
sg54
F-1.25
sg55
F1828.55
sg56
F4.3899999999999997
sg57
F122.88
sg58
F0.0
sba(i__main__
Pocket
p387
(dp388
g3
F0.14999999999999999
sg4
F0.58999999999999997
sg5
F0.90000000000000002
sg6
F0.0
sg7
F0.63
sg8
F50.0
sg9
F53.119999999999997
sg10
F0.0
sg11
F4.6699999999999999
sg12
F0.0
sg13
F15.93
sg14
F193.18000000000001
sg15
F0.0
sg16
S'PEP'
p389
sg18
F1.0
sg19
F2.0
sg20
F1.0
sg21
S'1alv_unbound.pdb'
p390
sg23
F0.0
sg24
F0.0
sg25
F0.12
sg26
F3.6400000000000001
sg27
F9.0
sg28
F3.5099999999999998
sg29
F3.0
sg30
F0.02
sg31
F0.17000000000000001
sg32
F1.0
sg33
F0.0
sg34
F0.0
sg35
F2.0
sg36
F0.31
sg37
F0.0
sg38
F9.3100000000000005
sg39
F3.0
sg40
F0.0
sg41
F0.48999999999999999
sg42
F68.829999999999998
sg43
F0.0
sg44
F0.0
sg45
F0.0
sg46
F0.12
sg47
F1.0
sg48
F0.0
sg49
F255.25
sg50
F0.0
sg51
F-6.4500000000000002
sg52
F0.0
sg53
F0.0
sg54
F-1.25
sg55
F1828.55
sg56
F3.9900000000000002
sg57
F124.34999999999999
sg58
F0.0
sba(i__main__
Pocket
p391
(dp392
g3
F0.25
sg4
F0.57999999999999996
sg5
F0.69999999999999996
sg6
F1.0
sg7
F0.58999999999999997
sg8
F57.0
sg9
F44.439999999999998
sg10
F0.0
sg11
F7.7800000000000002
sg12
F2.0
sg13
F17.579999999999998
sg14
F168.44999999999999
sg15
F0.0
sg16
S'PEP'
p393
sg18
F2.0
sg19
F0.0
sg20
F3.0
sg21
S'1alv_unbound.pdb'
p394
sg23
F0.0
sg24
F0.0
sg25
F0.16
sg26
F3.2000000000000002
sg27
F7.0
sg28
F3.46
sg29
F1.0
sg30
F0.02
sg31
F0.13
sg32
F2.0
sg33
F0.0
sg34
F1.0
sg35
F1.0
sg36
F0.35999999999999999
sg37
F0.0
sg38
F8.6999999999999993
sg39
F1.0
sg40
F1.0
sg41
F0.40999999999999998
sg42
F54.340000000000003
sg43
F0.0
sg44
F0.0
sg45
F0.0
sg46
F0.16
sg47
F1.0
sg48
F0.0
sg49
F285.31999999999999
sg50
F0.0
sg51
F11.07
sg52
F0.0
sg53
F0.0
sg54
F-1.25
sg55
F1828.55
sg56
F3.9900000000000002
sg57
F114.11
sg58
F0.0
sba(i__main__
Pocket
p395
(dp396
g3
F0.17999999999999999
sg4
F0.56000000000000005
sg5
F0.80000000000000004
sg6
F1.0
sg7
F0.62
sg8
F68.0
sg9
F44.439999999999998
sg10
F0.0
sg11
F5.71
sg12
F2.0
sg13
F17.93
sg14
F220.43000000000001
sg15
F0.0
sg16
S'PEP'
p397
sg18
F2.0
sg19
F0.0
sg20
F3.0
sg21
S'1alv_unbound.pdb'
p398
sg23
F0.0
sg24
F0.0
sg25
F0.10000000000000001
sg26
F3.1299999999999999
sg27
F8.0
sg28
F3.8199999999999998
sg29
F1.0
sg30
F0.02
sg31
F0.25
sg32
F1.0
sg33
F0.0
sg34
F1.0
sg35
F1.0
sg36
F0.42999999999999999
sg37
F1.0
sg38
F9.2400000000000002
sg39
F0.0
sg40
F1.0
sg41
F0.48999999999999999
sg42
F85.739999999999995
sg43
F0.0
sg44
F0.0
sg45
F0.0
sg46
F0.10000000000000001
sg47
F1.0
sg48
F0.0
sg49
F350.30000000000001
sg50
F0.0
sg51
F2.3300000000000001
sg52
F0.0
sg53
F0.0
sg54
F-1.25
sg55
F1828.55
sg56
F3.8300000000000001
sg57
F134.68000000000001
sg58
F0.0
sba(i__main__
Pocket
p399
(dp400
g3
F0.27000000000000002
sg4
F1.0
sg5
F0.90000000000000002
sg6
F0.0
sg7
F1.0
sg8
F158.0
sg9
F49.369999999999997
sg10
F0.0
sg11
F8.4299999999999997
sg12
F0.0
sg13
F18.93
sg14
F287.58999999999997
sg15
F0.0
sg16
S'PEP'
p401
sg18
F3.0
sg19
F1.0
sg20
F2.0
sg21
S'1alv_unbound.pdb'
p402
sg23
F0.0
sg24
F0.0
sg25
F0.17999999999999999
sg26
F4.0
sg27
F9.0
sg28
F3.5299999999999998
sg29
F2.0
sg30
F0.040000000000000001
sg31
F0.089999999999999997
sg32
F1.0
sg33
F0.0
sg34
F0.0
sg35
F1.0
sg36
F1.0
sg37
F0.0
sg38
F15.44
sg39
F1.0
sg40
F2.0
sg41
F0.46999999999999997
sg42
F85.739999999999995
sg43
F0.0
sg44
F0.0
sg45
F0.0
sg46
F0.17999999999999999
sg47
F0.0
sg48
F0.0
sg49
F621.39999999999998
sg50
F0.0
sg51
F14.92
sg52
F1.0
sg53
F0.0
sg54
F-1.25
sg55
F1828.55
sg56
F6.7400000000000002
sg57
F201.84999999999999
sg58
F0.0
sba(i__main__
Pocket
p403
(dp404
g3
F0.029999999999999999
sg4
F0.53000000000000003
sg5
F0.40000000000000002
sg6
F0.0
sg7
F0.63
sg8
F39.0
sg9
F50.0
sg10
F1.0
sg11
F1.0
sg12
F3.0
sg13
F22.25
sg14
F268.23000000000002
sg15
F0.0
sg16
S'PEP'
p405
sg18
F2.0
sg19
F0.0
sg20
F1.0
sg21
S'1alv_unbound.pdb'
p406
sg23
F0.0
sg24
F0.0
sg25
F0.050000000000000003
sg26
F3.3999999999999999
sg27
F4.0
sg28
F4.4299999999999997
sg29
F1.0
sg30
F0.029999999999999999
sg31
F0.14999999999999999
sg32
F0.0
sg33
F0.0
sg34
F0.0
sg35
F0.0
sg36
F0.23999999999999999
sg37
F0.0
sg38
F9.3000000000000007
sg39
F0.0
sg40
F1.0
sg41
F0.55000000000000004
sg42
F130.41999999999999
sg43
F0.0
sg44
F0.0
sg45
F0.0
sg46
F0.050000000000000003
sg47
F0.0
sg48
F0.0
sg49
F624.79999999999995
sg50
F0.0
sg51
F33.200000000000003
sg52
F1.0
sg53
F0.0
sg54
F-1.25
sg55
F1828.55
sg56
F3.6299999999999999
sg57
F137.81
sg58
F0.0
sba(i__main__
Pocket
p407
(dp408
g3
F1.0
sg4
F0.82999999999999996
sg5
F0.80000000000000004
sg6
F0.0
sg7
F0.91000000000000003
sg8
F97.0
sg9
F44.899999999999999
sg10
F2.0
sg11
F31.219999999999999
sg12
F3.0
sg13
F25.800000000000001
sg14
F463.83999999999997
sg15
F0.0
sg16
S'PEP'
p409
sg18
F3.0
sg19
F0.0
sg20
F1.0
sg21
S'1alv_unbound.pdb'
p410
sg23
F0.0
sg24
F0.0
sg25
F0.37
sg26
F3.9399999999999999
sg27
F8.0
sg28
F4.3099999999999996
sg29
F1.0
sg30
F0.83999999999999997
sg31
F0.19
sg32
F1.0
sg33
F0.0
sg34
F0.0
sg35
F1.0
sg36
F0.60999999999999999
sg37
F1.0
sg38
F14.01
sg39
F-1.0
sg40
F2.0
sg41
F0.57999999999999996
sg42
F217.37
sg43
F0.0
sg44
F0.0
sg45
F0.0
sg46
F0.37
sg47
F0.0
sg48
F2.0
sg49
F876.72000000000003
sg50
F0.0
sg51
F42.060000000000002
sg52
F1.0
sg53
F0.0
sg54
F-1.25
sg55
F1828.55
sg56
F5.5899999999999999
sg57
F246.47
sg58
F0.0
sba(i__main__
Pocket
p411
(dp412
g3
F0.45000000000000001
sg4
F0.40000000000000002
sg5
F0.20000000000000001
sg6
F0.0
sg7
F0.54000000000000004
sg8
F38.0
sg9
F38.100000000000001
sg10
F3.0
sg11
F14.0
sg12
F0.0
sg13
F26.899999999999999
sg14
F160.41999999999999
sg15
F1.0
sg16
S'PEP'
p413
sg18
F0.0
sg19
F1.0
sg20
F0.0
sg21
S'1alv_unbound.pdb'
p414
sg23
F0.0
sg24
F1.0
sg25
F0.39000000000000001
sg26
F4.3799999999999999
sg27
F2.0
sg28
F3.6899999999999999
sg29
F0.0
sg30
F0.089999999999999997
sg31
F0.22
sg32
F0.0
sg33
F0.0
sg34
F1.0
sg35
F0.0
sg36
F0.23999999999999999
sg37
F0.0
sg38
F7.8799999999999999
sg39
F0.0
sg40
F0.0
sg41
F0.56999999999999995
sg42
F71.25
sg43
F0.0
sg44
F0.0
sg45
F0.0
sg46
F0.39000000000000001
sg47
F0.0
sg48
F1.0
sg49
F404.23000000000002
sg50
F0.0
sg51
F49.0
sg52
F0.0
sg53
F0.0
sg54
F-1.25
sg55
F1828.55
sg56
F2.7400000000000002
sg57
F89.170000000000002
sg58
F0.0
sba(i__main__
Pocket
p415
(dp416
g3
F0.23999999999999999
sg4
F0.66000000000000003
sg5
F1.0
sg6
F3.0
sg7
F0.68000000000000005
sg8
F66.0
sg9
F56.759999999999998
sg10
F1.0
sg11
F6.0
sg12
F0.0
sg13
F1.6000000000000001
sg14
F243.74000000000001
sg15
F0.0
sg16
S'PEP'
p417
sg18
F4.0
sg19
F0.0
sg20
F0.0
sg21
S'1utn_unbound.pdb'
p418
sg23
F34.259999999999998
sg24
F1.0
sg25
F0.11
sg26
F4.4699999999999998
sg27
F14.0
sg28
F3.73
sg29
F1.0
sg30
F0.050000000000000003
sg31
F0.19
sg32
F0.0
sg33
F1.0
sg34
F0.0
sg35
F0.0
sg36
F0.77000000000000002
sg37
F0.0
sg38
F9.7100000000000009
sg39
F2.0
sg40
F1.0
sg41
F0.52000000000000002
sg42
F105.14
sg43
F0.92000000000000004
sg44
F1.0
sg45
F1.0
sg46
F0.11
sg47
F1.0
sg48
F1.0
sg49
F474.75
sg50
F1.0
sg51
F17.879999999999999
sg52
F0.0
sg53
F2.0
sg54
F1.9099999999999999
sg55
F1144.8599999999999
sg56
F3.75
sg57
F138.59
sg58
F1.0
sba(i__main__
Pocket
p419
(dp420
g3
F1.0
sg4
F1.0
sg5
F0.70999999999999996
sg6
F0.0
sg7
F1.0
sg8
F85.0
sg9
F40.43
sg10
F1.0
sg11
F24.530000000000001
sg12
F2.0
sg13
F14.99
sg14
F305.04000000000002
sg15
F1.0
sg16
S'PEP'
p421
sg18
F2.0
sg19
F0.0
sg20
F0.0
sg21
S'1utn_unbound.pdb'
p422
sg23
F0.0
sg24
F0.0
sg25
F0.45000000000000001
sg26
F3.9399999999999999
sg27
F10.0
sg28
F3.5800000000000001
sg29
F1.0
sg30
F0.5
sg31
F0.28999999999999998
sg32
F0.0
sg33
F0.0
sg34
F2.0
sg35
F1.0
sg36
F1.0
sg37
F0.0
sg38
F14.69
sg39
F6.0
sg40
F0.0
sg41
F0.40999999999999998
sg42
F135.49000000000001
sg43
F0.0
sg44
F0.0
sg45
F0.0
sg46
F0.45000000000000001
sg47
F2.0
sg48
F1.0
sg49
F511.69
sg50
F0.0
sg51
F20.109999999999999
sg52
F1.0
sg53
F4.0
sg54
F-1.25
sg55
F1144.8599999999999
sg56
F5.6900000000000004
sg57
F169.55000000000001
sg58
F0.0
sba(i__main__
Pocket
p423
(dp424
g3
F0.12
sg4
F0.75
sg5
F0.56999999999999995
sg6
F1.0
sg7
F0.69999999999999996
sg8
F51.0
sg9
F46.670000000000002
sg10
F0.0
sg11
F3.0
sg12
F1.0
sg13
F15.51
sg14
F264.01999999999998
sg15
F0.0
sg16
S'PEP'
p425
sg18
F4.0
sg19
F0.0
sg20
F0.0
sg21
S'1utn_unbound.pdb'
p426
sg23
F0.0
sg24
F0.0
sg25
F0.080000000000000002
sg26
F3.0800000000000001
sg27
F8.0
sg28
F4.1100000000000003
sg29
F0.0
sg30
F0.02
sg31
F0.29999999999999999
sg32
F1.0
sg33
F0.0
sg34
F1.0
sg35
F0.0
sg36
F0.59999999999999998
sg37
F0.0
sg38
F10.0
sg39
F3.0
sg40
F0.0
sg41
F0.56999999999999995
sg42
F97.819999999999993
sg43
F0.0
sg44
F0.0
sg45
F0.0
sg46
F0.080000000000000002
sg47
F3.0
sg48
F1.0
sg49
F684.05999999999995
sg50
F0.0
sg51
F17.579999999999998
sg52
F0.0
sg53
F0.0
sg54
F-1.25
sg55
F1144.8599999999999
sg56
F4.25
sg57
F166.19999999999999
sg58
F0.0
sba(i__main__
Pocket
p427
(dp428
g3
F0.080000000000000002
sg4
F0.53000000000000003
sg5
F0.64000000000000001
sg6
F2.0
sg7
F0.47999999999999998
sg8
F37.0
sg9
F56.0
sg10
F1.0
sg11
F2.0
sg12
F0.0
sg13
F16.789999999999999
sg14
F37.469999999999999
sg15
F0.0
sg16
S'PEP'
p429
sg18
F0.0
sg19
F1.0
sg20
F1.0
sg21
S'1utn_unbound.pdb'
p430
sg23
F0.0
sg24
F0.0
sg25
F0.080000000000000002
sg26
F4.9199999999999999
sg27
F9.0
sg28
F3.2799999999999998
sg29
F1.0
sg30
F0.02
sg31
F0.12
sg32
F0.0
sg33
F0.0
sg34
F0.0
sg35
F1.0
sg36
F0.42999999999999999
sg37
F1.0
sg38
F6.5700000000000003
sg39
F1.0
sg40
F1.0
sg41
F0.41999999999999998
sg42
F8.4499999999999993
sg43
F0.0
sg44
F0.0
sg45
F0.0
sg46
F0.080000000000000002
sg47
F0.0
sg48
F1.0
sg49
F128.63
sg50
F1.0
sg51
F20.0
sg52
F0.0
sg53
F1.0
sg54
F-1.25
sg55
F1144.8599999999999
sg56
F3.04
sg57
F29.02
sg58
F1.0
sba(i__main__
Pocket
p431
(dp432
g3
F1.0
sg4
F1.0
sg5
F1.0
sg6
F2.0
sg7
F1.0
sg8
F97.0
sg9
F23.530000000000001
sg10
F3.0
sg11
F44.689999999999998
sg12
F0.0
sg13
F1.8300000000000001
sg14
F319.31999999999999
sg15
F3.0
sg16
S'PEP'
p433
sg18
F1.0
sg19
F0.0
sg20
F0.0
sg21
S'1t4e_unbound.pdb'
p434
sg23
F48.890000000000001
sg24
F1.0
sg25
F0.59999999999999998
sg26
F3.5899999999999999
sg27
F6.0
sg28
F3.9900000000000002
sg29
F0.0
sg30
F0.87
sg31
F0.23999999999999999
sg32
F2.0
sg33
F1.0
sg34
F3.0
sg35
F0.0
sg36
F1.0
sg37
F0.0
sg38
F13.92
sg39
F0.0
sg40
F1.0
sg41
F0.54000000000000004
sg42
F233.06999999999999
sg43
F0.78000000000000003
sg44
F1.0
sg45
F1.0
sg46
F0.59999999999999998
sg47
F1.0
sg48
F0.0
sg49
F848.72000000000003
sg50
F0.0
sg51
F37.939999999999998
sg52
F0.0
sg53
F0.0
sg54
F1.73
sg55
F905.13
sg56
F5.5300000000000002
sg57
F86.25
sg58
F0.0
sba(i__main__
Pocket
p435
(dp436
g3
F0.41999999999999998
sg4
F0.70999999999999996
sg5
F1.0
sg6
F0.0
sg7
F0.67000000000000004
sg8
F38.0
sg9
F48.0
sg10
F0.0
sg11
F18.899999999999999
sg12
F0.0
sg13
F9.6099999999999994
sg14
F246.93000000000001
sg15
F1.0
sg16
S'PEP'
p437
sg18
F2.0
sg19
F0.0
sg20
F1.0
sg21
S'1t4e_unbound.pdb'
p438
sg23
F0.0
sg24
F0.0
sg25
F0.53000000000000003
sg26
F3.3999999999999999
sg27
F6.0
sg28
F3.9399999999999999
sg29
F0.0
sg30
F0.059999999999999998
sg31
F0.17000000000000001
sg32
F0.0
sg33
F0.0
sg34
F1.0
sg35
F1.0
sg36
F0.39000000000000001
sg37
F1.0
sg38
F8.9800000000000004
sg39
F0.0
sg40
F1.0
sg41
F0.56000000000000005
sg42
F118.17
sg43
F0.0
sg44
F0.0
sg45
F0.0
sg46
F0.53000000000000003
sg47
F1.0
sg48
F0.0
sg49
F632.11000000000001
sg50
F0.0
sg51
F15.300000000000001
sg52
F1.0
sg53
F0.0
sg54
F-1.25
sg55
F905.13
sg56
F3.9300000000000002
sg57
F128.75999999999999
sg58
F0.0
sba(i__main__
Pocket
p439
(dp440
g3
F0.70999999999999996
sg4
F0.58999999999999997
sg5
F0.33000000000000002
sg6
F0.0
sg7
F0.65000000000000002
sg8
F37.0
sg9
F21.739999999999998
sg10
F0.0
sg11
F31.640000000000001
sg12
F0.0
sg13
F10.210000000000001
sg14
F198.49000000000001
sg15
F1.0
sg16
S'PEP'
p441
sg18
F0.0
sg19
F0.0
sg20
F0.0
sg21
S'1t4e_unbound.pdb'
p442
sg23
F2.2200000000000002
sg24
F0.0
sg25
F0.89000000000000001
sg26
F3.5
sg27
F2.0
sg28
F4.25
sg29
F0.0
sg30
F0.059999999999999998
sg31
F0.11
sg32
F1.0
sg33
F0.0
sg34
F0.0
sg35
F0.0
sg36
F0.38
sg37
F1.0
sg38
F8.6400000000000006
sg39
F0.0
sg40
F0.0
sg41
F0.68000000000000005
sg42
F144.91999999999999
sg43
F0.0
sg44
F0.0
sg45
F0.0
sg46
F0.89000000000000001
sg47
F1.0
sg48
F0.0
sg49
F533.59000000000003
sg50
F0.0
sg51
F19.5
sg52
F0.0
sg53
F0.0
sg54
F-1.25
sg55
F905.13
sg56
F3.27
sg57
F53.57
sg58
F0.0
sba(i__main__
Pocket
p443
(dp444
g3
F0.5
sg4
F0.44
sg5
F0.33000000000000002
sg6
F0.0
sg7
F0.41999999999999998
sg8
F40.0
sg9
F23.079999999999998
sg10
F1.0
sg11
F35.950000000000003
sg12
F0.0
sg13
F0.38
sg14
F239.37
sg15
F0.0
sg16
S'PEP'
p445
sg18
F0.0
sg19
F0.0
sg20
F0.0
sg21
S'2am9_unbound.pdb'
p446
sg23
F40.619999999999997
sg24
F0.0
sg25
F0.93000000000000005
sg26
F5.0
sg27
F4.0
sg28
F3.96
sg29
F0.0
sg30
F0.25
sg31
F0.22
sg32
F0.0
sg33
F1.0
sg34
F1.0
sg35
F0.0
sg36
F0.20999999999999999
sg37
F1.0
sg38
F8.1899999999999995
sg39
F0.0
sg40
F2.0
sg41
F0.56000000000000005
sg42
F214.44
sg43
F0.88
sg44
F1.0
sg45
F1.0
sg46
F0.93000000000000005
sg47
F1.0
sg48
F1.0
sg49
F454.75999999999999
sg50
F0.0
sg51
F60.0
sg52
F2.0
sg53
F0.0
sg54
F1.8400000000000001
sg55
F818.70000000000005
sg56
F3.48
sg57
F24.93
sg58
F0.0
sba(i__main__
Pocket
p447
(dp448
g3
F1.0
sg4
F1.0
sg5
F1.0
sg6
F2.0
sg7
F1.0
sg8
F186.0
sg9
F25.0
sg10
F6.0
sg11
F72.480000000000004
sg12
F1.0
sg13
F12.77
sg14
F378.30000000000001
sg15
F3.0
sg16
S'PEP'
p449
sg18
F0.0
sg19
F1.0
sg20
F1.0
sg21
S'2am9_unbound.pdb'
p450
sg23
F0.0
sg24
F1.0
sg25
F0.76000000000000001
sg26
F4.8700000000000001
sg27
F12.0
sg28
F3.75
sg29
F0.0
sg30
F0.96999999999999997
sg31
F0.050000000000000003
sg32
F0.0
sg33
F0.0
sg34
F0.0
sg35
F1.0
sg36
F1.0
sg37
F1.0
sg38
F20.73
sg39
F0.0
sg40
F3.0
sg41
F0.51000000000000001
sg42
F263.80000000000001
sg43
F0.0
sg44
F0.0
sg45
F0.0
sg46
F0.76000000000000001
sg47
F1.0
sg48
F1.0
sg49
F897.13
sg50
F1.0
sg51
F58.100000000000001
sg52
F6.0
sg53
F0.0
sg54
F-1.25
sg55
F818.70000000000005
sg56
F7.8799999999999999
sg57
F114.5
sg58
F2.0
sba(i__main__
Pocket
p451
(dp452
g3
F0.33000000000000002
sg4
F0.5
sg5
F0.25
sg6
F0.0
sg7
F0.46999999999999997
sg8
F41.0
sg9
F32.0
sg10
F2.0
sg11
F24.0
sg12
F0.0
sg13
F22.539999999999999
sg14
F226.38
sg15
F1.0
sg16
S'PEP'
p453
sg18
F0.0
sg19
F0.0
sg20
F0.0
sg21
S'2am9_unbound.pdb'
p454
sg23
F0.0
sg24
F0.0
sg25
F0.63
sg26
F4.6200000000000001
sg27
F3.0
sg28
F3.7599999999999998
sg29
F0.0
sg30
F0.070000000000000007
sg31
F0.14999999999999999
sg32
F0.0
sg33
F0.0
sg34
F0.0
sg35
F0.0
sg36
F0.22
sg37
F2.0
sg38
F9.1300000000000008
sg39
F-2.0
sg40
F0.0
sg41
F0.55000000000000004
sg42
F108.69
sg43
F0.0
sg44
F0.0
sg45
F0.0
sg46
F0.63
sg47
F0.0
sg48
F1.0
sg49
F425.92000000000002
sg50
F1.0
sg51
F46.75
sg52
F0.0
sg53
F0.0
sg54
F-1.25
sg55
F818.70000000000005
sg56
F3.9199999999999999
sg57
F117.7
sg58
F1.0
sba(i__main__
Pocket
p455
(dp456
g3
F0.37
sg4
F0.42999999999999999
sg5
F0.17000000000000001
sg6
F0.0
sg7
F0.51000000000000001
sg8
F41.0
sg9
F38.460000000000001
sg10
F1.0
sg11
F26.789999999999999
sg12
F0.0
sg13
F25.640000000000001
sg14
F248.21000000000001
sg15
F1.0
sg16
S'PEP'
p457
sg18
F0.0
sg19
F0.0
sg20
F1.0
sg21
S'2am9_unbound.pdb'
p458
sg23
F0.0
sg24
F0.0
sg25
F0.68000000000000005
sg26
F3.7799999999999998
sg27
F2.0
sg28
F4.0499999999999998
sg29
F0.0
sg30
F0.01
sg31
F0.42999999999999999
sg32
F0.0
sg33
F0.0
sg34
F2.0
sg35
F0.0
sg36
F0.22
sg37
F1.0
sg38
F10.01
sg39
F0.0
sg40
F0.0
sg41
F0.48999999999999999
sg42
F192.91999999999999
sg43
F0.0
sg44
F0.0
sg45
F0.0
sg46
F0.68000000000000005
sg47
F0.0
sg48
F1.0
sg49
F633.19000000000005
sg50
F1.0
sg51
F23.0
sg52
F0.0
sg53
F1.0
sg54
F-1.25
sg55
F818.70000000000005
sg56
F3.3799999999999999
sg57
F55.289999999999999
sg58
F0.0
sba(i__main__
Pocket
p459
(dp460
g3
F0.31
sg4
F0.84999999999999998
sg5
F0.41999999999999998
sg6
F0.0
sg7
F0.78000000000000003
sg8
F78.0
sg9
F35.420000000000002
sg10
F3.0
sg11
F22.789999999999999
sg12
F0.0
sg13
F28.0
sg14
F403.11000000000001
sg15
F0.0
sg16
S'PEP'
p461
sg18
F1.0
sg19
F0.0
sg20
F1.0
sg21
S'2am9_unbound.pdb'
p462
sg23
F0.0
sg24
F1.0
sg25
F0.55000000000000004
sg26
F4.1699999999999999
sg27
F5.0
sg28
F3.9500000000000002
sg29
F0.0
sg30
F0.040000000000000001
sg31
F0.19
sg32
F1.0
sg33
F0.0
sg34
F1.0
sg35
F0.0
sg36
F0.41999999999999998
sg37
F1.0
sg38
F16.030000000000001
sg39
F-1.0
sg40
F1.0
sg41
F0.56999999999999995
sg42
F222.19999999999999
sg43
F0.0
sg44
F0.0
sg45
F0.0
sg46
F0.55000000000000004
sg47
F1.0
sg48
F1.0
sg49
F1217.5799999999999
sg50
F0.0
sg51
F36.75
sg52
F0.0
sg53
F0.0
sg54
F-1.25
sg55
F818.70000000000005
sg56
F6.7400000000000002
sg57
F180.90000000000001
sg58
F0.0
sba(i__main__
Pocket
p463
(dp464
g3
F1.0
sg4
F0.94999999999999996
sg5
F0.78000000000000003
sg6
F2.0
sg7
F1.0
sg8
F58.0
sg9
F34.289999999999999
sg10
F1.0
sg11
F25.850000000000001
sg12
F1.0
sg13
F1.0800000000000001
sg14
F299.50999999999999
sg15
F2.0
sg16
S'PEP'
p465
sg18
F1.0
sg19
F0.0
sg20
F0.0
sg21
S'1r6j_unbound.pdb'
p466
sg23
F49.299999999999997
sg24
F1.0
sg25
F0.46999999999999997
sg26
F4.0
sg27
F7.0
sg28
F4.0700000000000003
sg29
F0.0
sg30
F0.69999999999999996
sg31
F0.11
sg32
F0.0
sg33
F1.0
sg34
F1.0
sg35
F0.0
sg36
F1.0
sg37
F0.0
sg38
F9.1699999999999999
sg39
F0.0
sg40
F2.0
sg41
F0.58999999999999997
sg42
F202.88
sg43
F0.93000000000000005
sg44
F1.0
sg45
F1.0
sg46
F0.46999999999999997
sg47
F1.0
sg48
F0.0
sg49
F567.57000000000005
sg50
F0.0
sg51
F32.0
sg52
F0.0
sg53
F0.0
sg54
F1.9099999999999999
sg55
F548.96000000000004
sg56
F4.2300000000000004
sg57
F96.629999999999995
sg58
F0.0
sba(i__main__
Pocket
p467
(dp468
g3
F0.56000000000000005
sg4
F0.81999999999999995
sg5
F0.44
sg6
F2.0
sg7
F1.0
sg8
F69.0
sg9
F36.840000000000003
sg10
F0.0
sg11
F17.5
sg12
F1.0
sg13
F1.0
sg14
F377.48000000000002
sg15
F1.0
sg16
S'PEP'
p469
sg18
F3.0
sg19
F2.0
sg20
F3.0
sg21
S'1x2j_unbound.pdb'
p470
sg23
F49.350000000000001
sg24
F0.0
sg25
F0.28999999999999998
sg26
F3.6200000000000001
sg27
F7.0
sg28
F4.8600000000000003
sg29
F0.0
sg30
F0.02
sg31
F0.34999999999999998
sg32
F3.0
sg33
F1.0
sg34
F0.0
sg35
F0.0
sg36
F0.82999999999999996
sg37
F0.0
sg38
F14.289999999999999
sg39
F2.0
sg40
F0.0
sg41
F0.64000000000000001
sg42
F187.18000000000001
sg43
F0.93999999999999995
sg44
F1.0
sg45
F1.0
sg46
F0.28999999999999998
sg47
F0.0
sg48
F1.0
sg49
F858.58000000000004
sg50
F0.0
sg51
F12.44
sg52
F0.0
sg53
F0.0
sg54
F1.9299999999999999
sg55
F796.02999999999997
sg56
F4.6799999999999997
sg57
F190.28999999999999
sg58
F0.0
sba(i__main__
Pocket
p471
(dp472
g3
F0.65000000000000002
sg4
F0.45000000000000001
sg5
F0.38
sg6
F4.0
sg7
F0.51000000000000001
sg8
F48.0
sg9
F51.609999999999999
sg10
F2.0
sg11
F20.0
sg12
F2.0
sg13
F6.4400000000000004
sg14
F165.88999999999999
sg15
F0.0
sg16
S'PEP'
p473
sg18
F0.0
sg19
F0.0
sg20
F1.0
sg21
S'1x2j_unbound.pdb'
p474
sg23
F9.0899999999999999
sg24
F0.0
sg25
F0.44
sg26
F4.1699999999999999
sg27
F6.0
sg28
F4.0
sg29
F0.0
sg30
F0.080000000000000002
sg31
F0.10000000000000001
sg32
F0.0
sg33
F0.0
sg34
F1.0
sg35
F0.0
sg36
F0.56999999999999995
sg37
F0.0
sg38
F6.8700000000000001
sg39
F0.0
sg40
F2.0
sg41
F0.57999999999999996
sg42
F80.909999999999997
sg43
F0.0
sg44
F0.0
sg45
F0.0
sg46
F0.44
sg47
F0.0
sg48
F0.0
sg49
F265.24000000000001
sg50
F0.0
sg51
F32.329999999999998
sg52
F0.0
sg53
F0.0
sg54
F-1.25
sg55
F796.02999999999997
sg56
F2.5800000000000001
sg57
F84.980000000000004
sg58
F0.0
sba(i__main__
Pocket
p475
(dp476
g3
F0.0
sg4
F0.40000000000000002
sg5
F0.75
sg6
F6.0
sg7
F0.46999999999999997
sg8
F49.0
sg9
F62.07
sg10
F2.0
sg11
F0.0
sg12
F2.0
sg13
F12.35
sg14
F188.84
sg15
F0.0
sg16
S'PEP'
p477
sg18
F0.0
sg19
F0.0
sg20
F0.0
sg21
S'1x2j_unbound.pdb'
p478
sg23
F0.0
sg24
F0.0
sg25
F0.0
sg26
F4.8899999999999997
sg27
F12.0
sg28
F4.3399999999999999
sg29
F0.0
sg30
F0.12
sg31
F0.050000000000000003
sg32
F0.0
sg33
F0.0
sg34
F2.0
sg35
F0.0
sg36
F0.58999999999999997
sg37
F0.0
sg38
F6.1799999999999997
sg39
F0.0
sg40
F6.0
sg41
F0.57999999999999996
sg42
F37.439999999999998
sg43
F0.0
sg44
F0.0
sg45
F0.0
sg46
F0.0
sg47
F0.0
sg48
F0.0
sg49
F309.62
sg50
F0.0
sg51
F44.560000000000002
sg52
F0.0
sg53
F0.0
sg54
F-1.25
sg55
F796.02999999999997
sg56
F2.3300000000000001
sg57
F151.41
sg58
F0.0
sba(i__main__
Pocket
p479
(dp480
g3
F0.70999999999999996
sg4
F1.0
sg5
F0.62
sg6
F0.0
sg7
F0.92000000000000004
sg8
F83.0
sg9
F45.829999999999998
sg10
F1.0
sg11
F21.949999999999999
sg12
F1.0
sg13
F14.039999999999999
sg14
F294.01999999999998
sg15
F0.0
sg16
S'PEP'
p481
sg18
F4.0
sg19
F1.0
sg20
F2.0
sg21
S'1x2j_unbound.pdb'
p482
sg23
F0.0
sg24
F0.0
sg25
F0.46000000000000002
sg26
F3.8799999999999999
sg27
F10.0
sg28
F3.5899999999999999
sg29
F2.0
sg30
F0.10000000000000001
sg31
F0.20999999999999999
sg32
F0.0
sg33
F0.0
sg34
F0.0
sg35
F1.0
sg36
F1.0
sg37
F0.0
sg38
F13.039999999999999
sg39
F1.0
sg40
F1.0
sg41
F0.47999999999999998
sg42
F167.86000000000001
sg43
F0.0
sg44
F0.0
sg45
F0.0
sg46
F0.46000000000000002
sg47
F0.0
sg48
F1.0
sg49
F645.75
sg50
F1.0
sg51
F18.5
sg52
F0.0
sg53
F0.0
sg54
F-1.25
sg55
F796.02999999999997
sg56
F5.6699999999999999
sg57
F126.16
sg58
F1.0
sba(i__main__
Pocket
p483
(dp484
g3
F1.0
sg4
F0.42999999999999999
sg5
F0.25
sg6
F2.0
sg7
F0.38
sg8
F42.0
sg9
F32.0
sg10
F3.0
sg11
F31.0
sg12
F4.0
sg13
F14.99
sg14
F20.120000000000001
sg15
F0.0
sg16
S'PEP'
p485
sg18
F0.0
sg19
F0.0
sg20
F0.0
sg21
S'1x2j_unbound.pdb'
p486
sg23
F0.0
sg24
F0.0
sg25
F0.76000000000000001
sg26
F4.1500000000000004
sg27
F4.0
sg28
F3.21
sg29
F0.0
sg30
F0.84999999999999998
sg31
F0.089999999999999997
sg32
F2.0
sg33
F0.0
sg34
F0.0
sg35
F0.0
sg36
F0.5
sg37
F0.0
sg38
F4.8799999999999999
sg39
F0.0
sg40
F1.0
sg41
F0.44
sg42
F16.91
sg43
F0.0
sg44
F0.0
sg45
F0.0
sg46
F0.76000000000000001
sg47
F0.0
sg48
F0.0
sg49
F113.73
sg50
F0.0
sg51
F57.920000000000002
sg52
F0.0
sg53
F0.0
sg54
F-1.25
sg55
F796.02999999999997
sg56
F2.46
sg57
F3.21
sg58
F1.0
sba(i__main__
Pocket
p487
(dp488
g3
F0.0
sg4
F0.52000000000000002
sg5
F1.0
sg6
F2.0
sg7
F0.63
sg8
F71.0
sg9
F48.780000000000001
sg10
F0.0
sg11
F0.0
sg12
F2.0
sg13
F20.559999999999999
sg14
F312.63999999999999
sg15
F0.0
sg16
S'PEP'
p489
sg18
F0.0
sg19
F0.0
sg20
F0.0
sg21
S'1x2j_unbound.pdb'
p490
sg23
F0.0
sg24
F0.0
sg25
F0.0
sg26
F6.21
sg27
F16.0
sg28
F5.0099999999999998
sg29
F0.0
sg30
F0.45000000000000001
sg31
F0.11
sg32
F0.0
sg33
F0.0
sg34
F1.0
sg35
F1.0
sg36
F0.84999999999999998
sg37
F0.0
sg38
F8.6300000000000008
sg39
F2.0
sg40
F11.0
sg41
F0.67000000000000004
sg42
F101.44
sg43
F0.0
sg44
F0.0
sg45
F0.0
sg46
F0.0
sg47
F0.0
sg48
F0.0
sg49
F716.13
sg50
F0.0
sg51
F58.630000000000003
sg52
F0.0
sg53
F2.0
sg54
F-1.25
sg55
F796.02999999999997
sg56
F3.0
sg57
F211.19999999999999
sg58
F0.0
sba(i__main__
Pocket
p491
(dp492
g3
F0.0
sg4
F0.69999999999999996
sg5
F0.25
sg6
F0.0
sg7
F0.62
sg8
F36.0
sg9
F58.329999999999998
sg10
F0.0
sg11
F0.0
sg12
F0.0
sg13
F27.859999999999999
sg14
F232.31999999999999
sg15
F0.0
sg16
S'PEP'
p493
sg18
F1.0
sg19
F1.0
sg20
F1.0
sg21
S'1x2j_unbound.pdb'
p494
sg23
F0.0
sg24
F1.0
sg25
F0.029999999999999999
sg26
F4.25
sg27
F4.0
sg28
F3.7200000000000002
sg29
F0.0
sg30
F0.01
sg31
F0.40999999999999998
sg32
F1.0
sg33
F0.0
sg34
F0.0
sg35
F0.0
sg36
F0.42999999999999999
sg37
F0.0
sg38
F8.5399999999999991
sg39
F1.0
sg40
F0.0
sg41
F0.5
sg42
F62.799999999999997
sg43
F0.0
sg44
F0.0
sg45
F0.0
sg46
F0.029999999999999999
sg47
F1.0
sg48
F1.0
sg49
F424.26999999999998
sg50
F1.0
sg51
F19.120000000000001
sg52
F0.0
sg53
F0.0
sg54
F-1.25
sg55
F796.02999999999997
sg56
F4.0
sg57
F169.52000000000001
sg58
F0.0
sba(i__main__
Pocket
p495
(dp496
g3
F0.45000000000000001
sg4
F0.53000000000000003
sg5
F0.12
sg6
F0.0
sg7
F0.56000000000000005
sg8
F41.0
sg9
F42.310000000000002
sg10
F1.0
sg11
F14.0
sg12
F0.0
sg13
F29.390000000000001
sg14
F174.94999999999999
sg15
F0.0
sg16
S'PEP'
p497
sg18
F0.0
sg19
F0.0
sg20
F2.0
sg21
S'1x2j_unbound.pdb'
p498
sg23
F0.0
sg24
F0.0
sg25
F0.37
sg26
F3.5
sg27
F2.0
sg28
F3.6499999999999999
sg29
F0.0
sg30
F0.01
sg31
F0.17000000000000001
sg32
F1.0
sg33
F0.0
sg34
F0.0
sg35
F0.0
sg36
F0.48999999999999999
sg37
F2.0
sg38
F7.6200000000000001
sg39
F-2.0
sg40
F0.0
sg41
F0.48999999999999999
sg42
F74.870000000000005
sg43
F0.0
sg44
F0.0
sg45
F0.0
sg46
F0.37
sg47
F0.0
sg48
F0.0
sg49
F442.41000000000003
sg50
F0.0
sg51
F-4.5
sg52
F0.0
sg53
F0.0
sg54
F-1.25
sg55
F796.02999999999997
sg56
F3.0499999999999998
sg57
F100.08
sg58
F0.0
sba(i__main__
Pocket
p499
(dp500
g3
F1.0
sg4
Fnan
sg5
F0.56999999999999995
sg6
F0.0
sg7
F0.73999999999999999
sg8
F56.0
sg9
F27.59
sg10
F0.0
sg11
F33.0
sg12
F0.0
sg13
F2.02
sg14
F224.59999999999999
sg15
F0.0
sg16
S'PEP'
p501
sg18
F0.0
sg19
F0.0
sg20
F1.0
sg21
S'1ywp_unbound.pdb'
p502
sg23
F45.450000000000003
sg24
F0.0
sg25
F0.60999999999999999
sg26
F4.8300000000000001
sg27
F4.0
sg28
F4.4900000000000002
sg29
F1.0
sg30
F0.37
sg31
F0.27000000000000002
sg32
F0.0
sg33
F1.0
sg34
F0.0
sg35
F0.0
sg36
F1.0
sg37
F1.0
sg38
F6.8499999999999996
sg39
F-1.0
sg40
F0.0
sg41
F0.69999999999999996
sg42
F112.31
sg43
F0.64000000000000001
sg44
F0.72999999999999998
sg45
F1.0
sg46
F0.60999999999999999
sg47
F0.0
sg48
F1.0
sg49
F761.48000000000002
sg50
F0.0
sg51
F16.170000000000002
sg52
F0.0
sg53
F0.0
sg54
F1.01
sg55
F860.44000000000005
sg56
F3.0800000000000001
sg57
F112.29000000000001
sg58
F2.0
sba(i__main__
Pocket
p503
(dp504
g3
F0.55000000000000004
sg4
Fnan
sg5
F1.0
sg6
F0.0
sg7
F0.87
sg8
F52.0
sg9
F37.140000000000001
sg10
F0.0
sg11
F18.0
sg12
F0.0
sg13
F18.73
sg14
F318.31
sg15
F1.0
sg16
S'PEP'
p505
sg18
F2.0
sg19
F1.0
sg20
F0.0
sg21
S'1ywp_unbound.pdb'
p506
sg23
F0.0
sg24
F0.0
sg25
F0.37
sg26
F4.2000000000000002
sg27
F7.0
sg28
F4.4500000000000002
sg29
F0.0
sg30
F0.13
sg31
F0.34999999999999998
sg32
F0.0
sg33
F0.0
sg34
F0.0
sg35
F1.0
sg36
F0.93000000000000005
sg37
F1.0
sg38
F8.3000000000000007
sg39
F1.0
sg40
F1.0
sg41
F0.65000000000000002
sg42
F161.81999999999999
sg43
F0.0
sg44
F0.0
sg45
F0.0
sg46
F0.37
sg47
F1.0
sg48
F1.0
sg49
F795.13
sg50
F1.0
sg51
F25.300000000000001
sg52
F0.0
sg53
F0.0
sg54
F-1.25
sg55
F860.44000000000005
sg56
F3.5600000000000001
sg57
F156.49000000000001
sg58
F0.0
sba(i__main__
Pocket
p507
(dp508
g3
F0.23999999999999999
sg4
F0.58999999999999997
sg5
F0.35999999999999999
sg6
F0.0
sg7
F0.62
sg8
F55.0
sg9
F53.329999999999998
sg10
F1.0
sg11
F9.0899999999999999
sg12
F0.0
sg13
F4.4299999999999997
sg14
F278.81999999999999
sg15
F0.0
sg16
S'PEP'
p509
sg18
F0.0
sg19
F1.0
sg20
F1.0
sg21
S'2b9f_unbound.pdb'
p510
sg23
F18.289999999999999
sg24
F0.0
sg25
F0.20000000000000001
sg26
F4.0899999999999999
sg27
F5.0
sg28
F4.0
sg29
F2.0
sg30
F0.01
sg31
F0.20000000000000001
sg32
F3.0
sg33
F0.0
sg34
F0.0
sg35
F0.0
sg36
F0.45000000000000001
sg37
F1.0
sg38
F10.4
sg39
F1.0
sg40
F0.0
sg41
F0.54000000000000004
sg42
F109.89
sg43
F0.25
sg44
F0.45000000000000001
sg45
F0.0
sg46
F0.20000000000000001
sg47
F1.0
sg48
F1.0
sg49
F509.38999999999999
sg50
F0.0
sg51
F23.18
sg52
F0.0
sg53
F0.0
sg54
F-0.02
sg55
F1196.0799999999999
sg56
F3.98
sg57
F168.93000000000001
sg58
F0.0
sba(i__main__
Pocket
p511
(dp512
g3
F0.40999999999999998
sg4
F0.88
sg5
F0.20999999999999999
sg6
F0.0
sg7
F1.0
sg8
F68.0
sg9
F35.710000000000001
sg10
F2.0
sg11
F15.31
sg12
F0.0
sg13
F11.58
sg14
F242.58000000000001
sg15
F1.0
sg16
S'PEP'
p513
sg18
F0.0
sg19
F1.0
sg20
F2.0
sg21
S'2b9f_unbound.pdb'
p514
sg23
F0.0
sg24
F0.0
sg25
F0.42999999999999999
sg26
F4.0800000000000001
sg27
F3.0
sg28
F3.7400000000000002
sg29
F1.0
sg30
F0.02
sg31
F0.26000000000000001
sg32
F0.0
sg33
F0.0
sg34
F2.0
sg35
F0.0
sg36
F0.56000000000000005
sg37
F0.0
sg38
F17.510000000000002
sg39
F1.0
sg40
F1.0
sg41
F0.52000000000000002
sg42
F117.14
sg43
F0.0
sg44
F0.0
sg45
F0.0
sg46
F0.42999999999999999
sg47
F0.0
sg48
F1.0
sg49
F710.67999999999995
sg50
F1.0
sg51
F31.25
sg52
F0.0
sg53
F0.0
sg54
F-1.25
sg55
F1196.0799999999999
sg56
F5.9400000000000004
sg57
F125.44
sg58
F0.0
sba(i__main__
Pocket
p515
(dp516
g3
F0.66000000000000003
sg4
F0.97999999999999998
sg5
F1.0
sg6
F3.0
sg7
F0.95999999999999996
sg8
F121.0
sg9
F51.670000000000002
sg10
F3.0
sg11
F24.73
sg12
F2.0
sg13
F14.74
sg14
F516.36000000000001
sg15
F0.0
sg16
S'PEP'
p517
sg18
F1.0
sg19
F1.0
sg20
F2.0
sg21
S'2b9f_unbound.pdb'
p518
sg23
F1.22
sg24
F0.0
sg25
F0.25
sg26
F4.1500000000000004
sg27
F14.0
sg28
F4.2400000000000002
sg29
F2.0
sg30
F0.20999999999999999
sg31
F0.17999999999999999
sg32
F2.0
sg33
F0.0
sg34
F0.0
sg35
F1.0
sg36
F1.0
sg37
F2.0
sg38
F16.780000000000001
sg39
F2.0
sg40
F1.0
sg41
F0.51000000000000001
sg42
F247.46000000000001
sg43
F0.0
sg44
F0.0
sg45
F0.0
sg46
F0.25
sg47
F2.0
sg48
F2.0
sg49
F1131.6199999999999
sg50
F0.0
sg51
F24.0
sg52
F1.0
sg53
F1.0
sg54
F-1.25
sg55
F1196.0799999999999
sg56
F6.5999999999999996
sg57
F268.89999999999998
sg58
F0.0
sba(i__main__
Pocket
p519
(dp520
g3
F0.40000000000000002
sg4
F0.42999999999999999
sg5
F0.42999999999999999
sg6
F0.0
sg7
F0.40000000000000002
sg8
F36.0
sg9
F33.329999999999998
sg10
F0.0
sg11
F15.0
sg12
F0.0
sg13
F16.079999999999998
sg14
F174.77000000000001
sg15
F0.0
sg16
S'PEP'
p521
sg18
F1.0
sg19
F0.0
sg20
F0.0
sg21
S'2b9f_unbound.pdb'
p522
sg23
F0.0
sg24
F1.0
sg25
F0.44
sg26
F4.1100000000000003
sg27
F6.0
sg28
F3.98
sg29
F0.0
sg30
F0.02
sg31
F0.17999999999999999
sg32
F1.0
sg33
F0.0
sg34
F0.0
sg35
F1.0
sg36
F0.28999999999999998
sg37
F1.0
sg38
F6.3700000000000001
sg39
F-1.0
sg40
F0.0
sg41
F0.56000000000000005
sg42
F106.27
sg43
F0.0
sg44
F0.0
sg45
F0.0
sg46
F0.44
sg47
F1.0
sg48
F0.0
sg49
F345.42000000000002
sg50
F2.0
sg51
F24.109999999999999
sg52
F0.0
sg53
F0.0
sg54
F-1.25
sg55
F1196.0799999999999
sg56
F2.8799999999999999
sg57
F68.5
sg58
F1.0
sba(i__main__
Pocket
p523
(dp524
g3
F0.87
sg4
F0.89000000000000001
sg5
F0.64000000000000001
sg6
F2.0
sg7
F0.90000000000000002
sg8
F82.0
sg9
F47.829999999999998
sg10
F0.0
sg11
F32.399999999999999
sg12
F3.0
sg13
F17.699999999999999
sg14
F406.51999999999998
sg15
F0.0
sg16
S'PEP'
p525
sg18
F1.0
sg19
F0.0
sg20
F2.0
sg21
S'2b9f_unbound.pdb'
p526
sg23
F0.0
sg24
F1.0
sg25
F0.48999999999999999
sg26
F3.3799999999999999
sg27
F9.0
sg28
F4.1399999999999997
sg29
F0.0
sg30
F0.19
sg31
F0.14999999999999999
sg32
F0.0
sg33
F0.0
sg34
F1.0
sg35
F1.0
sg36
F0.68000000000000005
sg37
F1.0
sg38
F15.69
sg39
F0.0
sg40
F1.0
sg41
F0.56000000000000005
sg42
F229.44999999999999
sg43
F0.0
sg44
F0.0
sg45
F0.0
sg46
F0.48999999999999999
sg47
F2.0
sg48
F0.0
sg49
F984.92999999999995
sg50
F1.0
sg51
F7.5
sg52
F0.0
sg53
F0.0
sg54
F-1.25
sg55
F1196.0799999999999
sg56
F5.9500000000000002
sg57
F177.06999999999999
sg58
F0.0
sba(i__main__
Pocket
p527
(dp528
g3
F0.42999999999999999
sg4
F0.66000000000000003
sg5
F0.35999999999999999
sg6
F0.0
sg7
F0.69999999999999996
sg8
F50.0
sg9
F40.0
sg10
F0.0
sg11
F16.109999999999999
sg12
F0.0
sg13
F19.649999999999999
sg14
F257.68000000000001
sg15
F0.0
sg16
S'PEP'
p529
sg18
F0.0
sg19
F0.0
sg20
F1.0
sg21
S'2b9f_unbound.pdb'
p530
sg23
F0.0
sg24
F1.0
sg25
F0.38
sg26
F4.1100000000000003
sg27
F5.0
sg28
F4.1900000000000004
sg29
F0.0
sg30
F0.01
sg31
F0.23999999999999999
sg32
F0.0
sg33
F0.0
sg34
F1.0
sg35
F0.0
sg36
F0.40999999999999998
sg37
F2.0
sg38
F12.02
sg39
F-2.0
sg40
F1.0
sg41
F0.65000000000000002
sg42
F89.359999999999999
sg43
F0.0
sg44
F0.0
sg45
F0.0
sg46
F0.38
sg47
F1.0
sg48
F1.0
sg49
F654.77999999999997
sg50
F1.0
sg51
F10.220000000000001
sg52
F0.0
sg53
F0.0
sg54
F-1.25
sg55
F1196.0799999999999
sg56
F4.4400000000000004
sg57
F168.31999999999999
sg58
F0.0
sba(i__main__
Pocket
p531
(dp532
g3
F1.0
sg4
F0.47999999999999998
sg5
F0.35999999999999999
sg6
F0.0
sg7
F0.53000000000000003
sg8
F44.0
sg9
F25.0
sg10
F0.0
sg11
F37.439999999999998
sg12
F0.0
sg13
F21.420000000000002
sg14
F223.47
sg15
F2.0
sg16
S'PEP'
p533
sg18
F0.0
sg19
F1.0
sg20
F0.0
sg21
S'2b9f_unbound.pdb'
p534
sg23
F0.0
sg24
F1.0
sg25
F0.89000000000000001
sg26
F3.8799999999999999
sg27
F5.0
sg28
F4.4900000000000002
sg29
F0.0
sg30
F0.25
sg31
F0.46000000000000002
sg32
F0.0
sg33
F0.0
sg34
F1.0
sg35
F1.0
sg36
F0.35999999999999999
sg37
F1.0
sg38
F8.7300000000000004
sg39
F-1.0
sg40
F1.0
sg41
F0.58999999999999997
sg42
F150.94999999999999
sg43
F0.0
sg44
F0.0
sg45
F0.0
sg46
F0.89000000000000001
sg47
F0.0
sg48
F0.0
sg49
F586.42999999999995
sg50
F0.0
sg51
F12.380000000000001
sg52
F0.0
sg53
F0.0
sg54
F-1.25
sg55
F1196.0799999999999
sg56
F3.2599999999999998
sg57
F72.519999999999996
sg58
F0.0
sba(i__main__
Pocket
p535
(dp536
g3
F0.79000000000000004
sg4
F0.67000000000000004
sg5
F0.28999999999999998
sg6
F0.0
sg7
F0.60999999999999999
sg8
F60.0
sg9
F40.0
sg10
F0.0
sg11
F29.5
sg12
F0.0
sg13
F23.920000000000002
sg14
F187.44999999999999
sg15
F1.0
sg16
S'PEP'
p537
sg18
F1.0
sg19
F1.0
sg20
F1.0
sg21
S'2b9f_unbound.pdb'
p538
sg23
F0.0
sg24
F0.0
sg25
F0.59999999999999998
sg26
F2.5
sg27
F4.0
sg28
F3.5600000000000001
sg29
F0.0
sg30
F0.050000000000000003
sg31
F0.14999999999999999
sg32
F0.0
sg33
F0.0
sg34
F4.0
sg35
F0.0
sg36
F0.48999999999999999
sg37
F1.0
sg38
F10.380000000000001
sg39
F1.0
sg40
F0.0
sg41
F0.52000000000000002
sg42
F80.909999999999997
sg43
F0.0
sg44
F0.0
sg45
F0.0
sg46
F0.59999999999999998
sg47
F1.0
sg48
F0.0
sg49
F518.08000000000004
sg50
F0.0
sg51
F-7.2000000000000002
sg52
F0.0
sg53
F0.0
sg54
F-1.25
sg55
F1196.0799999999999
sg56
F4.5
sg57
F106.54000000000001
sg58
F0.0
sba(i__main__
Pocket
p539
(dp540
g3
F0.60999999999999999
sg4
F0.46999999999999997
sg5
F0.0
sg6
F0.0
sg7
F0.52000000000000002
sg8
F38.0
sg9
F29.170000000000002
sg10
F3.0
sg11
F22.829999999999998
sg12
F2.0
sg13
F24.699999999999999
sg14
F132.63
sg15
F1.0
sg16
S'PEP'
p541
sg18
F0.0
sg19
F0.0
sg20
F0.0
sg21
S'2b9f_unbound.pdb'
p542
sg23
F0.0
sg24
F0.0
sg25
F0.63
sg26
F3.1000000000000001
sg27
F0.0
sg28
F3.6299999999999999
sg29
F0.0
sg30
F0.17999999999999999
sg31
F0.28999999999999998
sg32
F0.0
sg33
F0.0
sg34
F3.0
sg35
F0.0
sg36
F0.31
sg37
F0.0
sg38
F8.6199999999999992
sg39
F0.0
sg40
F0.0
sg41
F0.45000000000000001
sg42
F71.25
sg43
F0.0
sg44
F0.0
sg45
F0.0
sg46
F0.63
sg47
F0.0
sg48
F1.0
sg49
F241.24000000000001
sg50
F0.0
sg51
F52.799999999999997
sg52
F0.0
sg53
F0.0
sg54
F-1.25
sg55
F1196.0799999999999
sg56
F3.1499999999999999
sg57
F61.380000000000003
sg58
F0.0
sba(i__main__
Pocket
p543
(dp544
g3
F0.46000000000000002
sg4
F1.0
sg5
F0.70999999999999996
sg6
F0.0
sg7
F0.98999999999999999
sg8
F91.0
sg9
F44.229999999999997
sg10
F1.0
sg11
F17.329999999999998
sg12
F3.0
sg13
F27.440000000000001
sg14
F279.33999999999997
sg15
F0.0
sg16
S'PEP'
p545
sg18
F2.0
sg19
F0.0
sg20
F2.0
sg21
S'2b9f_unbound.pdb'
p546
sg23
F0.0
sg24
F0.0
sg25
F0.29999999999999999
sg26
F3.6299999999999999
sg27
F10.0
sg28
F3.5299999999999998
sg29
F2.0
sg30
F0.050000000000000003
sg31
F0.40000000000000002
sg32
F2.0
sg33
F0.0
sg34
F0.0
sg35
F2.0
sg36
F0.75
sg37
F1.0
sg38
F17.420000000000002
sg39
F0.0
sg40
F2.0
sg41
F0.44
sg42
F120.03
sg43
F0.0
sg44
F0.0
sg45
F0.0
sg46
F0.29999999999999999
sg47
F1.0
sg48
F0.0
sg49
F553.73000000000002
sg50
F0.0
sg51
F25.579999999999998
sg52
F1.0
sg53
F0.0
sg54
F-1.25
sg55
F1196.0799999999999
sg56
F6.7199999999999998
sg57
F159.31
sg58
F0.0
sba(i__main__
Pocket
p547
(dp548
g3
F0.39000000000000001
sg4
F0.75
sg5
F0.35999999999999999
sg6
F0.0
sg7
F0.62
sg8
F38.0
sg9
F40.740000000000002
sg10
F0.0
sg11
F14.59
sg12
F3.0
sg13
F29.719999999999999
sg14
F323.61000000000001
sg15
F0.0
sg16
S'PEP'
p549
sg18
F1.0
sg19
F0.0
sg20
F1.0
sg21
S'2b9f_unbound.pdb'
p550
sg23
F0.0
sg24
F0.0
sg25
F0.45000000000000001
sg26
F3.2999999999999998
sg27
F5.0
sg28
F4.1699999999999999
sg29
F1.0
sg30
F0.01
sg31
F0.45000000000000001
sg32
F0.0
sg33
F0.0
sg34
F0.0
sg35
F0.0
sg36
F0.31
sg37
F1.0
sg38
F10.49
sg39
F1.0
sg40
F0.0
sg41
F0.62
sg42
F207.71000000000001
sg43
F0.0
sg44
F0.0
sg45
F0.0
sg46
F0.45000000000000001
sg47
F1.0
sg48
F0.0
sg49
F738.86000000000001
sg50
F1.0
sg51
F5.7000000000000002
sg52
F0.0
sg53
F1.0
sg54
F-1.25
sg55
F1196.0799999999999
sg56
F5.04
sg57
F115.89
sg58
F0.0
sba(i__main__
Pocket
p551
(dp552
g3
F0.11
sg4
F0.52000000000000002
sg5
F0.42999999999999999
sg6
F0.0
sg7
F0.52000000000000002
sg8
F58.0
sg9
F55.170000000000002
sg10
F0.0
sg11
F4.0
sg12
F0.0
sg13
F32.780000000000001
sg14
F246.27000000000001
sg15
F1.0
sg16
S'PEP'
p553
sg18
F1.0
sg19
F3.0
sg20
F0.0
sg21
S'2b9f_unbound.pdb'
p554
sg23
F0.0
sg24
F0.0
sg25
F0.089999999999999997
sg26
F4.4000000000000004
sg27
F6.0
sg28
F3.98
sg29
F1.0
sg30
F0.01
sg31
F0.45000000000000001
sg32
F1.0
sg33
F0.0
sg34
F0.0
sg35
F0.0
sg36
F0.46999999999999997
sg37
F1.0
sg38
F8.7100000000000009
sg39
F2.0
sg40
F0.0
sg41
F0.53000000000000003
sg42
F91.780000000000001
sg43
F0.0
sg44
F0.0
sg45
F0.0
sg46
F0.089999999999999997
sg47
F0.0
sg48
F1.0
sg49
F552.76999999999998
sg50
F1.0
sg51
F14.199999999999999
sg52
F0.0
sg53
F0.0
sg54
F-1.25
sg55
F1196.0799999999999
sg56
F3.5299999999999998
sg57
F154.49000000000001
sg58
F0.0
sba(i__main__
Pocket
p555
(dp556
g3
F0.66000000000000003
sg4
F1.0
sg5
F0.56999999999999995
sg6
F0.0
sg7
F0.89000000000000001
sg8
F84.0
sg9
F36.729999999999997
sg10
F3.0
sg11
F24.530000000000001
sg12
F0.0
sg13
F35.560000000000002
sg14
F436.73000000000002
sg15
F2.0
sg16
S'PEP'
p557
sg18
F1.0
sg19
F1.0
sg20
F0.0
sg21
S'2b9f_unbound.pdb'
p558
sg23
F0.0
sg24
F0.0
sg25
F0.40000000000000002
sg26
F3.8599999999999999
sg27
F8.0
sg28
F3.6499999999999999
sg29
F1.0
sg30
F0.080000000000000002
sg31
F0.32000000000000001
sg32
F1.0
sg33
F0.0
sg34
F0.0
sg35
F0.0
sg36
F0.68999999999999995
sg37
F2.0
sg38
F15.449999999999999
sg39
F2.0
sg40
F0.0
sg41
F0.54000000000000004
sg42
F212.53999999999999
sg43
F0.0
sg44
F0.0
sg45
F0.0
sg46
F0.40000000000000002
sg47
F3.0
sg48
F0.0
sg49
F693.80999999999995
sg50
F0.0
sg51
F23.5
sg52
F0.0
sg53
F0.0
sg54
F-1.25
sg55
F1196.0799999999999
sg56
F6.6799999999999997
sg57
F224.19
sg58
F0.0
sba(i__main__
Pocket
p559
(dp560
g3
F1.0
sg4
F1.0
sg5
F1.0
sg6
F1.0
sg7
F1.0
sg8
F156.0
sg9
F29.41
sg10
F6.0
sg11
F82.290000000000006
sg12
F1.0
sg13
F9.1699999999999999
sg14
F538.24000000000001
sg15
F2.0
sg16
S'PEP'
p561
sg18
F1.0
sg19
F1.0
sg20
F1.0
sg21
S'2j2i_unbound.pdb'
p562
sg23
F10.59
sg24
F0.0
sg25
F0.69999999999999996
sg26
F4.0
sg27
F12.0
sg28
F3.9500000000000002
sg29
F3.0
sg30
F0.79000000000000004
sg31
F0.20000000000000001
sg32
F0.0
sg33
F0.0
sg34
F2.0
sg35
F0.0
sg36
F1.0
sg37
F3.0
sg38
F15.73
sg39
F-1.0
sg40
F2.0
sg41
F0.46000000000000002
sg42
F333.31
sg43
F0.0
sg44
F0.0
sg45
F0.0
sg46
F0.69999999999999996
sg47
F1.0
sg48
F1.0
sg49
F1102.3499999999999
sg50
F1.0
sg51
F29.850000000000001
sg52
F0.0
sg53
F0.0
sg54
F-1.25
sg55
F699.79999999999995
sg56
F6.4800000000000004
sg57
F204.94
sg58
F0.0
sba(i__main__
Pocket
p563
(dp564
g3
F0.11
sg4
F0.70999999999999996
sg5
F0.92000000000000004
sg6
F3.0
sg7
F0.69999999999999996
sg8
F60.0
sg9
F46.149999999999999
sg10
F1.0
sg11
F9.0
sg12
F0.0
sg13
F9.2699999999999996
sg14
F359.72000000000003
sg15
F2.0
sg16
S'PEP'
p565
sg18
F2.0
sg19
F0.0
sg20
F1.0
sg21
S'2j2i_unbound.pdb'
p566
sg23
F5.8799999999999999
sg24
F0.0
sg25
F0.17000000000000001
sg26
F3.6099999999999999
sg27
F11.0
sg28
F3.8199999999999998
sg29
F3.0
sg30
F0.029999999999999999
sg31
F0.44
sg32
F0.0
sg33
F0.0
sg34
F1.0
sg35
F0.0
sg36
F0.38
sg37
F1.0
sg38
F10.640000000000001
sg39
F0.0
sg40
F1.0
sg41
F0.46999999999999997
sg42
F156.99000000000001
sg43
F0.0
sg44
F0.0
sg45
F0.0
sg46
F0.17000000000000001
sg47
F1.0
sg48
F0.0
sg49
F572.75999999999999
sg50
F1.0
sg51
F13.779999999999999
sg52
F1.0
sg53
F0.0
sg54
F-1.25
sg55
F699.79999999999995
sg56
F4.6100000000000003
sg57
F202.72999999999999
sg58
F0.0
sba(i__main__
Pocket
p567
(dp568
g3
F0.57999999999999996
sg4
F0.83999999999999997
sg5
F0.92000000000000004
sg6
F1.0
sg7
F0.93000000000000005
sg8
F120.0
sg9
F27.870000000000001
sg10
F2.0
sg11
F47.969999999999999
sg12
F2.0
sg13
F10.25
sg14
F126.92
sg15
F1.0
sg16
S'PEP'
p569
sg18
F2.0
sg19
F0.0
sg20
F1.0
sg21
S'2j2i_unbound.pdb'
p570
sg23
F2.3500000000000001
sg24
F2.0
sg25
F0.60999999999999999
sg26
F3.8999999999999999
sg27
F11.0
sg28
F3.3999999999999999
sg29
F1.0
sg30
F0.14000000000000001
sg31
F0.17999999999999999
sg32
F2.0
sg33
F0.0
sg34
F1.0
sg35
F1.0
sg36
F0.77000000000000002
sg37
F0.0
sg38
F14.6
sg39
F0.0
sg40
F1.0
sg41
F0.41999999999999998
sg42
F97.819999999999993
sg43
F0.0
sg44
F0.0
sg45
F0.0
sg46
F0.60999999999999999
sg47
F1.0
sg48
F0.0
sg49
F376.99000000000001
sg50
F1.0
sg51
F26.949999999999999
sg52
F0.0
sg53
F1.0
sg54
F-1.25
sg55
F699.79999999999995
sg56
F5.4699999999999998
sg57
F29.109999999999999
sg58
F1.0
sba(i__main__
Pocket
p571
(dp572
g3
F0.11
sg4
F0.63
sg5
F0.33000000000000002
sg6
F1.0
sg7
F0.63
sg8
F38.0
sg9
F41.670000000000002
sg10
F0.0
sg11
F9.0
sg12
F0.0
sg13
F12.31
sg14
F196.69
sg15
F2.0
sg16
S'PEP'
p573
sg18
F0.0
sg19
F0.0
sg20
F0.0
sg21
S'2j2i_unbound.pdb'
p574
sg23
F0.0
sg24
F0.0
sg25
F0.32000000000000001
sg26
F4.3799999999999999
sg27
F4.0
sg28
F3.7400000000000002
sg29
F0.0
sg30
F0.02
sg31
F0.31
sg32
F0.0
sg33
F0.0
sg34
F0.0
sg35
F0.0
sg36
F0.23999999999999999
sg37
F2.0
sg38
F9.6099999999999994
sg39
F-2.0
sg40
F1.0
sg41
F0.5
sg42
F92.989999999999995
sg43
F0.0
sg44
F0.0
sg45
F0.0
sg46
F0.32000000000000001
sg47
F0.0
sg48
F1.0
sg49
F397.75
sg50
F1.0
sg51
F31.120000000000001
sg52
F0.0
sg53
F0.0
sg54
F-1.25
sg55
F699.79999999999995
sg56
F4.0800000000000001
sg57
F103.7
sg58
F0.0
sba(i__main__
Pocket
p575
(dp576
g3
F0.11
sg4
F0.42999999999999999
sg5
F0.33000000000000002
sg6
F0.0
sg7
F0.46999999999999997
sg8
F37.0
sg9
F47.619999999999997
sg10
F1.0
sg11
F9.0
sg12
F1.0
sg13
F16.09
sg14
F216.31999999999999
sg15
F0.0
sg16
S'PEP'
p577
sg18
F0.0
sg19
F0.0
sg20
F1.0
sg21
S'2j2i_unbound.pdb'
p578
sg23
F0.0
sg24
F0.0
sg25
F0.27000000000000002
sg26
F4.0
sg27
F4.0
sg28
F4.4299999999999997
sg29
F2.0
sg30
F0.02
sg31
F0.32000000000000001
sg32
F1.0
sg33
F0.0
sg34
F0.0
sg35
F0.0
sg36
F0.23000000000000001
sg37
F0.0
sg38
F6.9299999999999997
sg39
F1.0
sg40
F0.0
sg41
F0.66000000000000003
sg42
F96.769999999999996
sg43
F0.0
sg44
F0.0
sg45
F0.0
sg46
F0.27000000000000002
sg47
F1.0
sg48
F0.0
sg49
F545.22000000000003
sg50
F0.0
sg51
F31.329999999999998
sg52
F1.0
sg53
F0.0
sg54
F-1.25
sg55
F699.79999999999995
sg56
F2.7799999999999998
sg57
F119.55
sg58
F1.0
sba(i__main__
Pocket
p579
(dp580
g3
F0.17000000000000001
sg4
F0.55000000000000004
sg5
F0.33000000000000002
sg6
F1.0
sg7
F0.60999999999999999
sg8
F36.0
sg9
F45.829999999999998
sg10
F2.0
sg11
F14.0
sg12
F1.0
sg13
F17.73
sg14
F144.99000000000001
sg15
F1.0
sg16
S'PEP'
p581
sg18
F0.0
sg19
F0.0
sg20
F1.0
sg21
S'2j2i_unbound.pdb'
p582
sg23
F0.0
sg24
F0.0
sg25
F0.41999999999999998
sg26
F4.2699999999999996
sg27
F4.0
sg28
F3.4300000000000002
sg29
F0.0
sg30
F0.040000000000000001
sg31
F0.20000000000000001
sg32
F0.0
sg33
F0.0
sg34
F1.0
sg35
F0.0
sg36
F0.23000000000000001
sg37
F1.0
sg38
F9.1699999999999999
sg39
F-1.0
sg40
F1.0
sg41
F0.45000000000000001
sg42
F66.420000000000002
sg43
F0.0
sg44
F0.0
sg45
F0.0
sg46
F0.41999999999999998
sg47
F0.0
sg48
F1.0
sg49
F405.61000000000001
sg50
F0.0
sg51
F39.729999999999997
sg52
F0.0
sg53
F0.0
sg54
F-1.25
sg55
F699.79999999999995
sg56
F3.54
sg57
F78.569999999999993
sg58
F1.0
sba(i__main__
Pocket
p583
(dp584
g3
F0.32000000000000001
sg4
F0.57999999999999996
sg5
F0.41999999999999998
sg6
F0.0
sg7
F0.52000000000000002
sg8
F49.0
sg9
F37.039999999999999
sg10
F0.0
sg11
F26.0
sg12
F0.0
sg13
F19.960000000000001
sg14
F200.69999999999999
sg15
F0.0
sg16
S'PEP'
p585
sg18
F2.0
sg19
F0.0
sg20
F2.0
sg21
S'2j2i_unbound.pdb'
p586
sg23
F0.0
sg24
F1.0
sg25
F0.55000000000000004
sg26
F3.7999999999999998
sg27
F5.0
sg28
F4.1500000000000004
sg29
F0.0
sg30
F0.01
sg31
F0.14999999999999999
sg32
F2.0
sg33
F0.0
sg34
F0.0
sg35
F0.0
sg36
F0.31
sg37
F1.0
sg38
F7.6799999999999997
sg39
F-2.0
sg40
F1.0
sg41
F0.57999999999999996
sg42
F148.53999999999999
sg43
F0.0
sg44
F0.0
sg45
F0.0
sg46
F0.55000000000000004
sg47
F0.0
sg48
F0.0
sg49
F618.16999999999996
sg50
F1.0
sg51
F13.5
sg52
F0.0
sg53
F0.0
sg54
F-1.25
sg55
F699.79999999999995
sg56
F3.7799999999999998
sg57
F52.159999999999997
sg58
F0.0
sba(i__main__
Pocket
p587
(dp588
g3
F0.27000000000000002
sg4
F0.64000000000000001
sg5
F0.41999999999999998
sg6
F0.0
sg7
F0.59999999999999998
sg8
F65.0
sg9
F40.0
sg10
F2.0
sg11
F22.0
sg12
F0.0
sg13
F20.219999999999999
sg14
F366.66000000000003
sg15
F1.0
sg16
S'PEP'
p589
sg18
F0.0
sg19
F0.0
sg20
F2.0
sg21
S'2j2i_unbound.pdb'
p590
sg23
F0.0
sg24
F0.0
sg25
F0.34999999999999998
sg26
F3.54
sg27
F5.0
sg28
F4.4800000000000004
sg29
F1.0
sg30
F0.01
sg31
F0.29999999999999999
sg32
F0.0
sg33
F0.0
sg34
F1.0
sg35
F0.0
sg36
F0.40999999999999998
sg37
F3.0
sg38
F9.0199999999999996
sg39
F-2.0
sg40
F0.0
sg41
F0.55000000000000004
sg42
F199.25999999999999
sg43
F0.0
sg44
F0.0
sg45
F0.0
sg46
F0.34999999999999998
sg47
F1.0
sg48
F0.0
sg49
F865.69000000000005
sg50
F2.0
sg51
F9.0800000000000001
sg52
F0.0
sg53
F0.0
sg54
F-1.25
sg55
F699.79999999999995
sg56
F4.1500000000000004
sg57
F167.40000000000001
sg58
F0.0
sba(i__main__
Pocket
p591
(dp592
g3
F0.25
sg4
F0.62
sg5
F0.17000000000000001
sg6
F0.0
sg7
F0.60999999999999999
sg8
F46.0
sg9
F31.030000000000001
sg10
F1.0
sg11
F20.27
sg12
F0.0
sg13
F20.719999999999999
sg14
F289.45999999999998
sg15
F0.0
sg16
S'PEP'
p593
sg18
F0.0
sg19
F0.0
sg20
F2.0
sg21
S'2j2i_unbound.pdb'
p594
sg23
F0.0
sg24
F0.0
sg25
F0.47999999999999998
sg26
F3.5600000000000001
sg27
F2.0
sg28
F4.1399999999999997
sg29
F1.0
sg30
F0.01
sg31
F0.26000000000000001
sg32
F1.0
sg33
F0.0
sg34
F1.0
sg35
F0.0
sg36
F0.28999999999999998
sg37
F1.0
sg38
F9.2899999999999991
sg39
F-1.0
sg40
F0.0
sg41
F0.55000000000000004
sg42
F165.44999999999999
sg43
F0.0
sg44
F0.0
sg45
F0.0
sg46
F0.47999999999999998
sg47
F0.0
sg48
F0.0
sg49
F932.14999999999998
sg50
F2.0
sg51
F16.440000000000001
sg52
F0.0
sg53
F0.0
sg54
F-1.25
sg55
F699.79999999999995
sg56
F4.0599999999999996
sg57
F124.01000000000001
sg58
F0.0
sba(i__main__
Pocket
p595
(dp596
g3
F0.34000000000000002
sg4
F0.5
sg5
F0.33000000000000002
sg6
F0.0
sg7
F0.51000000000000001
sg8
F43.0
sg9
F29.629999999999999
sg10
F0.0
sg11
F27.93
sg12
F0.0
sg13
F21.949999999999999
sg14
F182.38999999999999
sg15
F1.0
sg16
S'PEP'
p597
sg18
F2.0
sg19
F0.0
sg20
F2.0
sg21
S'2j2i_unbound.pdb'
p598
sg23
F0.0
sg24
F0.0
sg25
F0.67000000000000004
sg26
F3.7799999999999998
sg27
F4.0
sg28
F3.8199999999999998
sg29
F0.0
sg30
F0.02
sg31
F0.14000000000000001
sg32
F0.0
sg33
F0.0
sg34
F0.0
sg35
F1.0
sg36
F0.27000000000000002
sg37
F0.0
sg38
F7.5300000000000002
sg39
F0.0
sg40
F1.0
sg41
F0.54000000000000004
sg42
F143.71000000000001
sg43
F0.0
sg44
F0.0
sg45
F0.0
sg46
F0.67000000000000004
sg47
F0.0
sg48
F0.0
sg49
F393.56
sg50
F2.0
sg51
F22.780000000000001
sg52
F0.0
sg53
F0.0
sg54
F-1.25
sg55
F699.79999999999995
sg56
F3.27
sg57
F38.68
sg58
F0.0
sba(i__main__
Pocket
p599
(dp600
g3
F0.40999999999999998
sg4
F0.48999999999999999
sg5
F0.57999999999999996
sg6
F0.0
sg7
F0.5
sg8
F36.0
sg9
F28.57
sg10
F1.0
sg11
F34.0
sg12
F0.0
sg13
F22.059999999999999
sg14
F172.65000000000001
sg15
F0.0
sg16
S'PEP'
p601
sg18
F0.0
sg19
F0.0
sg20
F0.0
sg21
S'2j2i_unbound.pdb'
p602
sg23
F0.0
sg24
F0.0
sg25
F0.96999999999999997
sg26
F5.7800000000000002
sg27
F7.0
sg28
F3.54
sg29
F0.0
sg30
F0.22
sg31
F0.48999999999999999
sg32
F0.0
sg33
F0.0
sg34
F0.0
sg35
F0.0
sg36
F0.23000000000000001
sg37
F1.0
sg38
F7.3399999999999999
sg39
F1.0
sg40
F3.0
sg41
F0.42999999999999999
sg42
F161.81999999999999
sg43
F0.0
sg44
F0.0
sg45
F0.0
sg46
F0.96999999999999997
sg47
F2.0
sg48
F0.0
sg49
F238.84999999999999
sg50
F1.0
sg51
F54.219999999999999
sg52
F0.0
sg53
F0.0
sg54
F-1.25
sg55
F699.79999999999995
sg56
F3.1699999999999999
sg57
F10.83
sg58
F1.0
sba(i__main__
Pocket
p603
(dp604
g3
F0.22
sg4
F0.62
sg5
F0.5
sg6
F1.0
sg7
F0.65000000000000002
sg8
F60.0
sg9
F39.390000000000001
sg10
F1.0
sg11
F18.199999999999999
sg12
F0.0
sg13
F22.149999999999999
sg14
F314.89999999999998
sg15
F1.0
sg16
S'PEP'
p605
sg18
F1.0
sg19
F0.0
sg20
F1.0
sg21
S'2j2i_unbound.pdb'
p606
sg23
F0.0
sg24
F0.0
sg25
F0.33000000000000002
sg26
F4.0899999999999999
sg27
F6.0
sg28
F4.4400000000000004
sg29
F0.0
sg30
F0.02
sg31
F0.20000000000000001
sg32
F0.0
sg33
F0.0
sg34
F0.0
sg35
F0.0
sg36
F0.38
sg37
F2.0
sg38
F9.9499999999999993
sg39
F-1.0
sg40
F0.0
sg41
F0.58999999999999997
sg42
F166.65000000000001
sg43
F0.0
sg44
F0.0
sg45
F0.0
sg46
F0.33000000000000002
sg47
F1.0
sg48
F1.0
sg49
F750.24000000000001
sg50
F1.0
sg51
F20.18
sg52
F0.0
sg53
F0.0
sg54
F-1.25
sg55
F699.79999999999995
sg56
F4.0099999999999998
sg57
F148.25
sg58
F1.0
sba(i__main__
Pocket
p607
(dp608
g3
F0.37
sg4
F0.51000000000000001
sg5
F0.33000000000000002
sg6
F0.0
sg7
F0.63
sg8
F36.0
sg9
F26.920000000000002
sg10
F1.0
sg11
F30.190000000000001
sg12
F0.0
sg13
F23.390000000000001
sg14
F154.99000000000001
sg15
F1.0
sg16
S'PEP'
p609
sg18
F0.0
sg19
F0.0
sg20
F1.0
sg21
S'2j2i_unbound.pdb'
p610
sg23
F0.0
sg24
F1.0
sg25
F0.89000000000000001
sg26
F4.0
sg27
F4.0
sg28
F3.5
sg29
F0.0
sg30
F0.02
sg31
F0.46000000000000002
sg32
F1.0
sg33
F0.0
sg34
F2.0
sg35
F0.0
sg36
F0.23000000000000001
sg37
F1.0
sg38
F9.4700000000000006
sg39
F-2.0
sg40
F2.0
sg41
F0.45000000000000001
sg42
F115.93000000000001
sg43
F0.0
sg44
F0.0
sg45
F0.0
sg46
F0.89000000000000001
sg47
F0.0
sg48
F0.0
sg49
F219.08000000000001
sg50
F0.0
sg51
F28.600000000000001
sg52
F0.0
sg53
F0.0
sg54
F-1.25
sg55
F699.79999999999995
sg56
F3.3100000000000001
sg57
F39.060000000000002
sg58
F0.0
sba(i__main__
Pocket
p611
(dp612
g3
F0.58999999999999997
sg4
F0.47999999999999998
sg5
F0.059999999999999998
sg6
F0.0
sg7
F0.48999999999999999
sg8
F47.0
sg9
F22.579999999999998
sg10
F2.0
sg11
F37.149999999999999
sg12
F0.0
sg13
F1.45
sg14
F197.47
sg15
F0.0
sg16
S'PEP'
p613
sg18
F0.0
sg19
F0.0
sg20
F1.0
sg21
S'1h1r_unbound.pdb'
p614
sg23
F31.629999999999999
sg24
F0.0
sg25
F0.84999999999999998
sg26
F4.5700000000000003
sg27
F1.0
sg28
F3.9100000000000001
sg29
F0.0
sg30
F0.23999999999999999
sg31
F0.20000000000000001
sg32
F0.0
sg33
F1.0
sg34
F1.0
sg35
F0.0
sg36
F0.29999999999999999
sg37
F0.0
sg38
F8.4800000000000004
sg39
F0.0
sg40
F0.0
sg41
F0.63
sg42
F141.28999999999999
sg43
F1.0
sg44
F1.0
sg45
F1.0
sg46
F0.84999999999999998
sg47
F0.0
sg48
F1.0
sg49
F355.62
sg50
F0.0
sg51
F58.859999999999999
sg52
F1.0
sg53
F0.0
sg54
F2.0
sg55
F1115.4100000000001
sg56
F3.3900000000000001
sg57
F56.18
sg58
F1.0
sba(i__main__
Pocket
p615
(dp616
g3
F0.40000000000000002
sg4
F0.51000000000000001
sg5
F0.44
sg6
F0.0
sg7
F0.47999999999999998
sg8
F48.0
sg9
F43.329999999999998
sg10
F0.0
sg11
F25.0
sg12
F0.0
sg13
F6.6200000000000001
sg14
F237.46000000000001
sg15
F0.0
sg16
S'PEP'
p617
sg18
F1.0
sg19
F0.0
sg20
F0.0
sg21
S'1h1r_unbound.pdb'
p618
sg23
F9.1799999999999997
sg24
F0.0
sg25
F0.54000000000000004
sg26
F3.75
sg27
F8.0
sg28
F3.8999999999999999
sg29
F0.0
sg30
F0.01
sg31
F0.23999999999999999
sg32
F0.0
sg33
F0.0
sg34
F0.0
sg35
F0.0
sg36
F0.31
sg37
F4.0
sg38
F8.3499999999999996
sg39
F-2.0
sg40
F1.0
sg41
F0.67000000000000004
sg42
F85.739999999999995
sg43
F0.02
sg44
F0.12
sg45
F0.0
sg46
F0.54000000000000004
sg47
F2.0
sg48
F0.0
sg49
F563.50999999999999
sg50
F0.0
sg51
F-14.0
sg52
F0.0
sg53
F0.0
sg54
F-0.96999999999999997
sg55
F1115.4100000000001
sg56
F3.6000000000000001
sg57
F151.72
sg58
F0.0
sba(i__main__
Pocket
p619
(dp620
g3
F0.20999999999999999
sg4
F0.46000000000000002
sg5
F0.28000000000000003
sg6
F1.0
sg7
F0.42999999999999999
sg8
F40.0
sg9
F42.310000000000002
sg10
F1.0
sg11
F13.0
sg12
F1.0
sg13
F14.880000000000001
sg14
F140.65000000000001
sg15
F0.0
sg16
S'PEP'
p621
sg18
F0.0
sg19
F1.0
sg20
F0.0
sg21
S'1h1r_unbound.pdb'
p622
sg23
F0.0
sg24
F0.0
sg25
F0.34999999999999998
sg26
F4.5599999999999996
sg27
F5.0
sg28
F3.6899999999999999
sg29
F1.0
sg30
F0.040000000000000001
sg31
F0.27000000000000002
sg32
F1.0
sg33
F0.0
sg34
F0.0
sg35
F0.0
sg36
F0.25
sg37
F0.0
sg38
F7.3600000000000003
sg39
F2.0
sg40
F1.0
sg41
F0.52000000000000002
sg42
F74.870000000000005
sg43
F0.0
sg44
F0.0
sg45
F0.0
sg46
F0.34999999999999998
sg47
F1.0
sg48
F0.0
sg49
F310.69
sg50
F0.0
sg51
F39.670000000000002
sg52
F1.0
sg53
F0.0
sg54
F-1.25
sg55
F1115.4100000000001
sg56
F3.2400000000000002
sg57
F65.780000000000001
sg58
F0.0
sba(i__main__
Pocket
p623
(dp624
g3
F0.52000000000000002
sg4
F0.78000000000000003
sg5
F0.39000000000000001
sg6
F0.0
sg7
F0.69999999999999996
sg8
F87.0
sg9
F38.780000000000001
sg10
F1.0
sg11
F32.619999999999997
sg12
F1.0
sg13
F15.9
sg14
F240.24000000000001
sg15
F0.0
sg16
S'PEP'
p625
sg18
F1.0
sg19
F0.0
sg20
F1.0
sg21
S'1h1r_unbound.pdb'
p626
sg23
F0.0
sg24
F1.0
sg25
F0.45000000000000001
sg26
F3.5899999999999999
sg27
F7.0
sg28
F3.6200000000000001
sg29
F3.0
sg30
F0.029999999999999999
sg31
F0.17999999999999999
sg32
F1.0
sg33
F0.0
sg34
F2.0
sg35
F1.0
sg36
F0.56000000000000005
sg37
F0.0
sg38
F12.77
sg39
F0.0
sg40
F0.0
sg41
F0.5
sg42
F129.22
sg43
F0.0
sg44
F0.0
sg45
F0.0
sg46
F0.45000000000000001
sg47
F1.0
sg48
F3.0
sg49
F509.74000000000001
sg50
F1.0
sg51
F26.18
sg52
F0.0
sg53
F0.0
sg54
F-1.25
sg55
F1115.4100000000001
sg56
F5.5
sg57
F111.02
sg58
F0.0
sba(i__main__
Pocket
p627
(dp628
g3
F0.10000000000000001
sg4
F0.45000000000000001
sg5
F0.28000000000000003
sg6
F0.0
sg7
F0.44
sg8
F42.0
sg9
F36.0
sg10
F1.0
sg11
F6.0
sg12
F0.0
sg13
F17.210000000000001
sg14
F215.88
sg15
F0.0
sg16
S'PEP'
p629
sg18
F3.0
sg19
F0.0
sg20
F0.0
sg21
S'1h1r_unbound.pdb'
p630
sg23
F0.0
sg24
F0.0
sg25
F0.17000000000000001
sg26
F3.7799999999999998
sg27
F5.0
sg28
F3.8799999999999999
sg29
F0.0
sg30
F0.040000000000000001
sg31
F0.28999999999999998
sg32
F1.0
sg33
F0.0
sg34
F0.0
sg35
F0.0
sg36
F0.27000000000000002
sg37
F0.0
sg38
F7.6100000000000003
sg39
F2.0
sg40
F0.0
sg41
F0.54000000000000004
sg42
F112.31
sg43
F0.0
sg44
F0.0
sg45
F0.0
sg46
F0.17000000000000001
sg47
F2.0
sg48
F1.0
sg49
F493.47000000000003
sg50
F0.0
sg51
F41.439999999999998
sg52
F1.0
sg53
F0.0
sg54
F-1.25
sg55
F1115.4100000000001
sg56
F3.1400000000000001
sg57
F103.56999999999999
sg58
F0.0
sba(i__main__
Pocket
p631
(dp632
g3
F0.63
sg4
F0.68000000000000005
sg5
F0.60999999999999999
sg6
F0.0
sg7
F0.70999999999999996
sg8
F95.0
sg9
F35.850000000000001
sg10
F3.0
sg11
F40.0
sg12
F1.0
sg13
F18.469999999999999
sg14
F190.94
sg15
F0.0
sg16
S'PEP'
p633
sg18
F1.0
sg19
F1.0
sg20
F1.0
sg21
S'1h1r_unbound.pdb'
p634
sg23
F0.0
sg24
F1.0
sg25
F0.46000000000000002
sg26
F4.3200000000000003
sg27
F11.0
sg28
F3.7599999999999998
sg29
F2.0
sg30
F0.11
sg31
F0.12
sg32
F2.0
sg33
F0.0
sg34
F1.0
sg35
F1.0
sg36
F0.60999999999999999
sg37
F1.0
sg38
F12.859999999999999
sg39
F1.0
sg40
F2.0
sg41
F0.52000000000000002
sg42
F131.63
sg43
F0.0
sg44
F0.0
sg45
F0.0
sg46
F0.46000000000000002
sg47
F1.0
sg48
F0.0
sg49
F455.49000000000001
sg50
F3.0
sg51
F31.68
sg52
F0.0
sg53
F1.0
sg54
F-1.25
sg55
F1115.4100000000001
sg56
F4.7800000000000002
sg57
F59.310000000000002
sg58
F0.0
sba(i__main__
Pocket
p635
(dp636
g3
F0.01
sg4
F0.62
sg5
F0.28000000000000003
sg6
F0.0
sg7
F0.57999999999999996
sg8
F38.0
sg9
F54.170000000000002
sg10
F0.0
sg11
F0.67000000000000004
sg12
F0.0
sg13
F20.16
sg14
F254.63
sg15
F0.0
sg16
S'PEP'
p637
sg18
F0.0
sg19
F0.0
sg20
F1.0
sg21
S'1h1r_unbound.pdb'
p638
sg23
F0.0
sg24
F0.0
sg25
F0.080000000000000002
sg26
F3.4399999999999999
sg27
F5.0
sg28
F4.0800000000000001
sg29
F0.0
sg30
F0.01
sg31
F0.17999999999999999
sg32
F1.0
sg33
F0.0
sg34
F1.0
sg35
F1.0
sg36
F0.23999999999999999
sg37
F2.0
sg38
F10.359999999999999
sg39
F0.0
sg40
F0.0
sg41
F0.53000000000000003
sg42
F82.120000000000005
sg43
F0.0
sg44
F0.0
sg45
F0.0
sg46
F0.080000000000000002
sg47
F2.0
sg48
F1.0
sg49
F594.29999999999995
sg50
F0.0
sg51
F5.4400000000000004
sg52
F0.0
sg53
F0.0
sg54
F-1.25
sg55
F1115.4100000000001
sg56
F4.3799999999999999
sg57
F172.50999999999999
sg58
F0.0
sba(i__main__
Pocket
p639
(dp640
g3
F0.56999999999999995
sg4
F0.81999999999999995
sg5
F0.60999999999999999
sg6
F1.0
sg7
F1.0
sg8
F103.0
sg9
F36.359999999999999
sg10
F3.0
sg11
F35.700000000000003
sg12
F0.0
sg13
F21.93
sg14
F369.17000000000002
sg15
F0.0
sg16
S'PEP'
p641
sg18
F0.0
sg19
F0.0
sg20
F1.0
sg21
S'1h1r_unbound.pdb'
p642
sg23
F0.0
sg24
F1.0
sg25
F0.51000000000000001
sg26
F4.0
sg27
F11.0
sg28
F3.7000000000000002
sg29
F1.0
sg30
F0.029999999999999999
sg31
F0.46999999999999997
sg32
F0.0
sg33
F0.0
sg34
F0.0
sg35
F2.0
sg36
F0.66000000000000003
sg37
F3.0
sg38
F18.530000000000001
sg39
F-2.0
sg40
F1.0
sg41
F0.51000000000000001
sg42
F237.90000000000001
sg43
F0.0
sg44
F0.0
sg45
F0.0
sg46
F0.51000000000000001
sg47
F2.0
sg48
F0.0
sg49
F857.96000000000004
sg50
F0.0
sg51
F10.4
sg52
F0.0
sg53
F0.0
sg54
F-1.25
sg55
F1115.4100000000001
sg56
F5.79
sg57
F131.27000000000001
sg58
F0.0
sba(i__main__
Pocket
p643
(dp644
g3
F0.37
sg4
F0.72999999999999998
sg5
F0.33000000000000002
sg6
F1.0
sg7
F0.60999999999999999
sg8
F106.0
sg9
F42.109999999999999
sg10
F2.0
sg11
F23.609999999999999
sg12
F3.0
sg13
F24.739999999999998
sg14
F186.22999999999999
sg15
F2.0
sg16
S'PEP'
p645
sg18
F0.0
sg19
F1.0
sg20
F3.0
sg21
S'1h1r_unbound.pdb'
p646
sg23
F0.0
sg24
F0.0
sg25
F0.34000000000000002
sg26
F3.8599999999999999
sg27
F6.0
sg28
F3.4700000000000002
sg29
F0.0
sg30
F0.029999999999999999
sg31
F0.089999999999999997
sg32
F1.0
sg33
F0.0
sg34
F1.0
sg35
F1.0
sg36
F0.68000000000000005
sg37
F2.0
sg38
F10.890000000000001
sg39
F-1.0
sg40
F1.0
sg41
F0.44
sg42
F85.739999999999995
sg43
F0.0
sg44
F0.0
sg45
F0.0
sg46
F0.34000000000000002
sg47
F0.0
sg48
F2.0
sg49
F406.22000000000003
sg50
F2.0
sg51
F30.550000000000001
sg52
F0.0
sg53
F0.0
sg54
F-1.25
sg55
F1115.4100000000001
sg56
F5.1500000000000004
sg57
F100.48999999999999
sg58
F0.0
sba(i__main__
Pocket
p647
(dp648
g3
F0.23000000000000001
sg4
F0.78000000000000003
sg5
F0.44
sg6
F0.0
sg7
F0.66000000000000003
sg8
F75.0
sg9
F52.5
sg10
F1.0
sg11
F14.44
sg12
F0.0
sg13
F27.48
sg14
F339.57999999999998
sg15
F0.0
sg16
S'PEP'
p649
sg18
F0.0
sg19
F1.0
sg20
F1.0
sg21
S'1h1r_unbound.pdb'
p650
sg23
F0.0
sg24
F0.0
sg25
F0.23999999999999999
sg26
F3.7999999999999998
sg27
F8.0
sg28
F4.0800000000000001
sg29
F1.0
sg30
F0.01
sg31
F0.73999999999999999
sg32
F0.0
sg33
F0.0
sg34
F0.0
sg35
F1.0
sg36
F0.47999999999999998
sg37
F2.0
sg38
F11.84
sg39
F2.0
sg40
F0.0
sg41
F0.64000000000000001
sg42
F114.72
sg43
F0.0
sg44
F0.0
sg45
F0.0
sg46
F0.23999999999999999
sg47
F3.0
sg48
F0.0
sg49
F716.32000000000005
sg50
F0.0
sg51
F-7.0999999999999996
sg52
F0.0
sg53
F0.0
sg54
F-1.25
sg55
F1115.4100000000001
sg56
F5.5199999999999996
sg57
F224.86000000000001
sg58
F0.0
sba(i__main__
Pocket
p651
(dp652
g3
F0.19
sg4
F0.54000000000000004
sg5
F0.33000000000000002
sg6
F1.0
sg7
F0.44
sg8
F37.0
sg9
F46.149999999999999
sg10
F0.0
sg11
F12.0
sg12
F0.0
sg13
F27.82
sg14
F78.799999999999997
sg15
F0.0
sg16
S'PEP'
p653
sg18
F0.0
sg19
F0.0
sg20
F1.0
sg21
S'1h1r_unbound.pdb'
p654
sg23
F0.0
sg24
F1.0
sg25
F0.34999999999999998
sg26
F3.7000000000000002
sg27
F6.0
sg28
F3.21
sg29
F0.0
sg30
F0.01
sg31
F0.12
sg32
F2.0
sg33
F0.0
sg34
F1.0
sg35
F1.0
sg36
F0.23000000000000001
sg37
F1.0
sg38
F7.5800000000000001
sg39
F0.0
sg40
F0.0
sg41
F0.34999999999999998
sg42
F51.93
sg43
F0.0
sg44
F0.0
sg45
F0.0
sg46
F0.34999999999999998
sg47
F1.0
sg48
F0.0
sg49
F166.68000000000001
sg50
F0.0
sg51
F1.7
sg52
F0.0
sg53
F1.0
sg54
F-1.25
sg55
F1115.4100000000001
sg56
F3.8300000000000001
sg57
F26.870000000000001
sg58
F0.0
sba(i__main__
Pocket
p655
(dp656
g3
F0.46000000000000002
sg4
F0.58999999999999997
sg5
F0.33000000000000002
sg6
F0.0
sg7
F0.56999999999999995
sg8
F63.0
sg9
F31.43
sg10
F2.0
sg11
F29.0
sg12
F0.0
sg13
F28.850000000000001
sg14
F235.84999999999999
sg15
F1.0
sg16
S'PEP'
p657
sg18
F0.0
sg19
F0.0
sg20
F0.0
sg21
S'1h1r_unbound.pdb'
p658
sg23
F0.0
sg24
F1.0
sg25
F0.54000000000000004
sg26
F4.0
sg27
F6.0
sg28
F3.8700000000000001
sg29
F1.0
sg30
F0.029999999999999999
sg31
F0.19
sg32
F0.0
sg33
F0.0
sg34
F1.0
sg35
F1.0
sg36
F0.40000000000000002
sg37
F0.0
sg38
F10.23
sg39
F1.0
sg40
F1.0
sg41
F0.56000000000000005
sg42
F119.56
sg43
F0.0
sg44
F0.0
sg45
F0.0
sg46
F0.54000000000000004
sg47
F2.0
sg48
F0.0
sg49
F471.19999999999999
sg50
F0.0
sg51
F31.399999999999999
sg52
F0.0
sg53
F0.0
sg54
F-1.25
sg55
F1115.4100000000001
sg56
F4.1600000000000001
sg57
F116.29000000000001
sg58
F0.0
sba(i__main__
Pocket
p659
(dp660
g3
F0.23999999999999999
sg4
F0.55000000000000004
sg5
F0.28000000000000003
sg6
F0.0
sg7
F0.57999999999999996
sg8
F43.0
sg9
F37.039999999999999
sg10
F1.0
sg11
F15.289999999999999
sg12
F1.0
sg13
F34.299999999999997
sg14
F162.53
sg15
F1.0
sg16
S'PEP'
p661
sg18
F1.0
sg19
F1.0
sg20
F0.0
sg21
S'1h1r_unbound.pdb'
p662
sg23
F0.0
sg24
F1.0
sg25
F0.40000000000000002
sg26
F4.6900000000000004
sg27
F5.0
sg28
F3.3700000000000001
sg29
F0.0
sg30
F0.10000000000000001
sg31
F0.29999999999999999
sg32
F0.0
sg33
F0.0
sg34
F0.0
sg35
F1.0
sg36
F0.27000000000000002
sg37
F0.0
sg38
F10.32
sg39
F0.0
sg40
F1.0
sg41
F0.40999999999999998
sg42
F86.950000000000003
sg43
F0.0
sg44
F0.0
sg45
F0.0
sg46
F0.40000000000000002
sg47
F0.0
sg48
F3.0
sg49
F225.36000000000001
sg50
F2.0
sg51
F52.920000000000002
sg52
F0.0
sg53
F0.0
sg54
F-1.25
sg55
F1115.4100000000001
sg56
F3.8999999999999999
sg57
F75.579999999999998
sg58
F0.0
sba(i__main__
Pocket
p663
(dp664
g3
F0.46999999999999997
sg4
F1.0
sg5
F0.71999999999999997
sg6
F1.0
sg7
F0.85999999999999999
sg8
F131.0
sg9
F38.57
sg10
F0.0
sg11
F29.719999999999999
sg12
F2.0
sg13
F35.219999999999999
sg14
F482.5
sg15
F1.0
sg16
S'PEP'
p665
sg18
F2.0
sg19
F1.0
sg20
F1.0
sg21
S'1h1r_unbound.pdb'
p666
sg23
F0.0
sg24
F1.0
sg25
F0.44
sg26
F4.1600000000000001
sg27
F13.0
sg28
F3.6800000000000002
sg29
F1.0
sg30
F0.070000000000000007
sg31
F0.16
sg32
F3.0
sg33
F0.0
sg34
F2.0
sg35
F1.0
sg36
F0.83999999999999997
sg37
F1.0
sg38
F15.720000000000001
sg39
F0.0
sg40
F3.0
sg41
F0.44
sg42
F301.70999999999998
sg43
F0.0
sg44
F0.0
sg45
F0.0
sg46
F0.44
sg47
F0.0
sg48
F0.0
sg49
F977.42999999999995
sg50
F3.0
sg51
F29.239999999999998
sg52
F0.0
sg53
F1.0
sg54
F-1.25
sg55
F1115.4100000000001
sg56
F7.0499999999999998
sg57
F180.78999999999999
sg58
F1.0
sba(i__main__
Pocket
p667
(dp668
g3
F1.0
sg4
F0.90000000000000002
sg5
F1.0
sg6
F3.0
sg7
F0.87
sg8
F155.0
sg9
F36.840000000000003
sg10
F3.0
sg11
F63.07
sg12
F2.0
sg13
F39.039999999999999
sg14
F488.04000000000002
sg15
F3.0
sg16
S'PEP'
p669
sg18
F0.0
sg19
F1.0
sg20
F0.0
sg21
S'1h1r_unbound.pdb'
p670
sg23
F0.0
sg24
F1.0
sg25
F0.54000000000000004
sg26
F4.1299999999999999
sg27
F18.0
sg28
F3.7999999999999998
sg29
F2.0
sg30
F0.73999999999999999
sg31
F0.22
sg32
F1.0
sg33
F0.0
sg34
F1.0
sg35
F1.0
sg36
F1.0
sg37
F4.0
sg38
F16.050000000000001
sg39
F-1.0
sg40
F3.0
sg41
F0.46999999999999997
sg42
F288.62
sg43
F0.0
sg44
F0.0
sg45
F0.0
sg46
F0.54000000000000004
sg47
F3.0
sg48
F2.0
sg49
F964.62
sg50
F0.0
sg51
F25.670000000000002
sg52
F0.0
sg53
F0.0
sg54
F-1.25
sg55
F1115.4100000000001
sg56
F6.3799999999999999
sg57
F199.41
sg58
F0.0
sba(i__main__
Pocket
p671
(dp672
g3
F0.059999999999999998
sg4
F0.55000000000000004
sg5
F0.17000000000000001
sg6
F0.0
sg7
F0.42999999999999999
sg8
F36.0
sg9
F48.0
sg10
F1.0
sg11
F4.0
sg12
F0.0
sg13
F50.039999999999999
sg14
F295.54000000000002
sg15
F1.0
sg16
S'PEP'
p673
sg18
F0.0
sg19
F0.0
sg20
F3.0
sg21
S'1h1r_unbound.pdb'
p674
sg23
F6.1200000000000001
sg24
F0.0
sg25
F0.14000000000000001
sg26
F4.2199999999999998
sg27
F3.0
sg28
F4.1699999999999999
sg29
F0.0
sg30
F0.01
sg31
F0.17000000000000001
sg32
F0.0
sg33
F0.0
sg34
F0.0
sg35
F1.0
sg36
F0.23000000000000001
sg37
F0.0
sg38
F7.4000000000000004
sg39
F1.0
sg40
F1.0
sg41
F0.59999999999999998
sg42
F48.310000000000002
sg43
F0.0
sg44
F0.0
sg45
F0.0
sg46
F0.14000000000000001
sg47
F1.0
sg48
F1.0
sg49
F585.72000000000003
sg50
F0.0
sg51
F25.329999999999998
sg52
F0.0
sg53
F0.0
sg54
F-1.25
sg55
F1115.4100000000001
sg56
F3.8500000000000001
sg57
F247.24000000000001
sg58
F0.0
sba(i__main__
Pocket
p675
(dp676
g3
F0.35999999999999999
sg4
F0.56000000000000005
sg5
F0.67000000000000004
sg6
F0.0
sg7
F0.71999999999999997
sg8
F38.0
sg9
F50.0
sg10
F0.0
sg11
F8.0
sg12
F0.0
sg13
F11.56
sg14
F185.5
sg15
F0.0
sg16
S'PEP'
p677
sg18
F0.0
sg19
F1.0
sg20
F2.0
sg21
S'2ds5_unbound.pdb'
p678
sg23
F0.0
sg24
F0.0
sg25
F0.23999999999999999
sg26
F3.8599999999999999
sg27
F4.0
sg28
F4.0999999999999996
sg29
F2.0
sg30
F0.01
sg31
F0.47999999999999998
sg32
F0.0
sg33
F0.0
sg34
F1.0
sg35
F0.0
sg36
F1.0
sg37
F0.0
sg38
F6.5099999999999998
sg39
F1.0
sg40
F1.0
sg41
F0.60999999999999999
sg42
F77.290000000000006
sg43
F0.0
sg44
F0.0
sg45
F0.0
sg46
F0.23999999999999999
sg47
F0.0
sg48
F0.0
sg49
F428.76999999999998
sg50
F0.0
sg51
F-10.57
sg52
F0.0
sg53
F0.0
sg54
F-1.25
sg55
F1234.54
sg56
F2.77
sg57
F108.20999999999999
sg58
F0.0
sba(i__main__
Pocket
p679
(dp680
g3
F1.0
sg4
F0.98999999999999999
sg5
F0.70999999999999996
sg6
F1.0
sg7
F1.0
sg8
F57.0
sg9
F41.18
sg10
F0.0
sg11
F24.219999999999999
sg12
F3.0
sg13
F0.81999999999999995
sg14
F256.31999999999999
sg15
F0.0
sg16
S'PEP'
p681
sg18
F1.0
sg19
F0.0
sg20
F0.0
sg21
S'1jbe_unbound.pdb'
p682
sg23
F52.380000000000003
sg24
F0.0
sg25
F0.63
sg26
F2.73
sg27
F5.0
sg28
F3.6899999999999999
sg29
F0.0
sg30
F0.48999999999999999
sg31
F0.13
sg32
F1.0
sg33
F1.0
sg34
F2.0
sg35
F0.0
sg36
F1.0
sg37
F0.0
sg38
F11.31
sg39
F3.0
sg40
F0.0
sg41
F0.46999999999999997
sg42
F161.81999999999999
sg43
F0.77000000000000002
sg44
F0.92000000000000004
sg45
F1.0
sg46
F0.63
sg47
F3.0
sg48
F0.0
sg49
F444.38
sg50
F0.0
sg51
F18.91
sg52
F0.0
sg53
F0.0
sg54
F1.55
sg55
F1109.0599999999999
sg56
F4.6299999999999999
sg57
F94.5
sg58
F0.0
sba(i__main__
Pocket
p683
(dp684
g3
F0.72999999999999998
sg4
F0.90000000000000002
sg5
F0.70999999999999996
sg6
F0.0
sg7
F0.95999999999999996
sg8
F40.0
sg9
F31.030000000000001
sg10
F2.0
sg11
F17.68
sg12
F0.0
sg13
F4.8700000000000001
sg14
F163.25999999999999
sg15
F1.0
sg16
S'PEP'
p685
sg18
F0.0
sg19
F0.0
sg20
F0.0
sg21
S'1jbe_unbound.pdb'
p686
sg23
F14.289999999999999
sg24
F0.0
sg25
F0.62
sg26
F4.3799999999999999
sg27
F5.0
sg28
F3.5099999999999998
sg29
F0.0
sg30
F0.35999999999999999
sg31
F0.31
sg32
F0.0
sg33
F0.0
sg34
F0.0
sg35
F1.0
sg36
F0.69999999999999996
sg37
F1.0
sg38
F10.82
sg39
F1.0
sg40
F1.0
sg41
F0.46999999999999997
sg42
F73.670000000000002
sg43
F0.0
sg44
F0.0
sg45
F0.0
sg46
F0.62
sg47
F2.0
sg48
F0.0
sg49
F295.81999999999999
sg50
F0.0
sg51
F39.75
sg52
F0.0
sg53
F0.0
sg54
F-1.25
sg55
F1109.0599999999999
sg56
F4.25
sg57
F89.590000000000003
sg58
F0.0
sba(i__main__
Pocket
p687
(dp688
g3
F0.0
sg4
F0.77000000000000002
sg5
F0.44
sg6
F0.0
sg7
F0.81999999999999995
sg8
F41.0
sg9
F53.57
sg10
F0.0
sg11
F0.0
sg12
F1.0
sg13
F17.059999999999999
sg14
F216.0
sg15
F0.0
sg16
S'PEP'
p689
sg18
F1.0
sg19
F0.0
sg20
F1.0
sg21
S'2f1w_unbound.pdb'
p690
sg23
F0.0
sg24
F1.0
sg25
F0.0
sg26
F3.6200000000000001
sg27
F4.0
sg28
F3.9500000000000002
sg29
F1.0
sg30
F0.01
sg31
F0.17999999999999999
sg32
F0.0
sg33
F0.0
sg34
F0.0
sg35
F0.0
sg36
F0.93000000000000005
sg37
F1.0
sg38
F8.8300000000000001
sg39
F-2.0
sg40
F0.0
sg41
F0.68999999999999995
sg42
F70.040000000000006
sg43
F0.0
sg44
F0.0
sg45
F0.0
sg46
F0.0
sg47
F0.0
sg48
F2.0
sg49
F539.25999999999999
sg50
F0.0
sg51
F9.5
sg52
F0.0
sg53
F0.0
sg54
F-1.25
sg55
F500.37
sg56
F3.4500000000000002
sg57
F145.94999999999999
sg58
F0.0
sba(i__main__
Pocket
p691
(dp692
g3
F1.0
sg4
F0.93999999999999995
sg5
F1.0
sg6
F0.0
sg7
F1.0
sg8
F44.0
sg9
F37.039999999999999
sg10
F1.0
sg11
F28.879999999999999
sg12
F2.0
sg13
F19.98
sg14
F327.88999999999999
sg15
F0.0
sg16
S'PEP'
p693
sg18
F2.0
sg19
F1.0
sg20
F1.0
sg21
S'2f1w_unbound.pdb'
p694
sg23
F0.0
sg24
F0.0
sg25
F0.72999999999999998
sg26
F4.71
sg27
F9.0
sg28
F4.0899999999999999
sg29
F1.0
sg30
F0.79000000000000004
sg31
F0.17999999999999999
sg32
F0.0
sg33
F0.0
sg34
F0.0
sg35
F0.0
sg36
F1.0
sg37
F0.0
sg38
F11.029999999999999
sg39
F2.0
sg40
F1.0
sg41
F0.51000000000000001
sg42
F200.47
sg43
F0.0
sg44
F0.0
sg45
F0.0
sg46
F0.72999999999999998
sg47
F0.0
sg48
F0.0
sg49
F699.67999999999995
sg50
F1.0
sg51
F30.0
sg52
F0.0
sg53
F1.0
sg54
F-1.25
sg55
F500.37
sg56
F4.1799999999999997
sg57
F127.43000000000001
sg58
F3.0
sba(i__main__
Pocket
p695
(dp696
g3
F1.0
sg4
F1.0
sg5
F1.0
sg6
F2.0
sg7
F1.0
sg8
F453.0
sg9
F30.850000000000001
sg10
F11.0
sg11
F79.189999999999998
sg12
F2.0
sg13
F15.01
sg14
F1446.1500000000001
sg15
F6.0
sg16
S'PEP'
p697
sg18
F3.0
sg19
F0.0
sg20
F2.0
sg21
S'2hwq_unbound.pdb'
p698
sg23
F0.0
sg24
F2.0
sg25
F0.65000000000000002
sg26
F3.7999999999999998
sg27
F20.0
sg28
F3.8799999999999999
sg29
F1.0
sg30
F0.85999999999999999
sg31
F0.32000000000000001
sg32
F2.0
sg33
F0.0
sg34
F7.0
sg35
F1.0
sg36
F1.0
sg37
F5.0
sg38
F33.399999999999999
sg39
F-3.0
sg40
F2.0
sg41
F0.47999999999999998
sg42
F951.61000000000001
sg43
F0.0
sg44
F0.0
sg45
F0.0
sg46
F0.65000000000000002
sg47
F3.0
sg48
F3.0
sg49
F3108.48
sg50
F1.0
sg51
F37.310000000000002
sg52
F5.0
sg53
F1.0
sg54
F-1.25
sg55
F910.27999999999997
sg56
F12.6
sg57
F494.54000000000002
sg58
F0.0
sba(i__main__
Pocket
p699
(dp700
g3
F0.33000000000000002
sg4
F0.40999999999999998
sg5
F0.29999999999999999
sg6
F0.0
sg7
F0.33000000000000002
sg8
F67.0
sg9
F42.859999999999999
sg10
F0.0
sg11
F25.809999999999999
sg12
F0.0
sg13
F19.030000000000001
sg14
F305.08999999999997
sg15
F2.0
sg16
S'PEP'
p701
sg18
F1.0
sg19
F0.0
sg20
F1.0
sg21
S'2hwq_unbound.pdb'
p702
sg23
F0.0
sg24
F0.0
sg25
F0.46000000000000002
sg26
F3.29
sg27
F6.0
sg28
F3.3599999999999999
sg29
F1.0
sg30
F0.01
sg31
F0.56000000000000005
sg32
F0.0
sg33
F0.0
sg34
F2.0
sg35
F1.0
sg36
F0.14999999999999999
sg37
F2.0
sg38
F10.24
sg39
F-1.0
sg40
F0.0
sg41
F0.35999999999999999
sg42
F111.09999999999999
sg43
F0.0
sg44
F0.0
sg45
F0.0
sg46
F0.46000000000000002
sg47
F1.0
sg48
F2.0
sg49
F421.14999999999998
sg50
F0.0
sg51
F16.210000000000001
sg52
F1.0
sg53
F0.0
sg54
F-1.25
sg55
F910.27999999999997
sg56
F5.1900000000000004
sg57
F193.99000000000001
sg58
F0.0
sba(i__main__
Pocket
p703
(dp704
g3
F0.089999999999999997
sg4
F0.26000000000000001
sg5
F0.25
sg6
F0.0
sg7
F0.32000000000000001
sg8
F44.0
sg9
F41.380000000000003
sg10
F0.0
sg11
F7.0
sg12
F0.0
sg13
F25.68
sg14
F257.31999999999999
sg15
F1.0
sg16
S'PEP'
p705
sg18
F0.0
sg19
F0.0
sg20
F0.0
sg21
S'2hwq_unbound.pdb'
p706
sg23
F0.0
sg24
F0.0
sg25
F0.17999999999999999
sg26
F3.4399999999999999
sg27
F5.0
sg28
F4.3200000000000003
sg29
F1.0
sg30
F0.01
sg31
F0.23000000000000001
sg32
F0.0
sg33
F0.0
sg34
F1.0
sg35
F1.0
sg36
F0.10000000000000001
sg37
F2.0
sg38
F9.8800000000000008
sg39
F-1.0
sg40
F0.0
sg41
F0.65000000000000002
sg42
F74.870000000000005
sg43
F0.0
sg44
F0.0
sg45
F0.0
sg46
F0.17999999999999999
sg47
F1.0
sg48
F1.0
sg49
F528.38999999999999
sg50
F1.0
sg51
F11.779999999999999
sg52
F0.0
sg53
F0.0
sg54
F-1.25
sg55
F910.27999999999997
sg56
F3.3500000000000001
sg57
F182.44999999999999
sg58
F0.0
sba(i__main__
Pocket
p707
(dp708
g3
F0.33000000000000002
sg4
F0.38
sg5
F0.34999999999999998
sg6
F2.0
sg7
F0.35999999999999999
sg8
F67.0
sg9
F36.109999999999999
sg10
F0.0
sg11
F25.859999999999999
sg12
F0.0
sg13
F26.59
sg14
F417.92000000000002
sg15
F2.0
sg16
S'PEP'
p709
sg18
F2.0
sg19
F0.0
sg20
F0.0
sg21
S'2hwq_unbound.pdb'
p710
sg23
F0.0
sg24
F0.0
sg25
F0.42999999999999999
sg26
F2.9199999999999999
sg27
F7.0
sg28
F4.4800000000000004
sg29
F0.0
sg30
F0.01
sg31
F0.5
sg32
F0.0
sg33
F0.0
sg34
F3.0
sg35
F0.0
sg36
F0.14999999999999999
sg37
F1.0
sg38
F11.27
sg39
F1.0
sg40
F0.0
sg41
F0.46999999999999997
sg42
F222.19999999999999
sg43
F0.0
sg44
F0.0
sg45
F0.0
sg46
F0.42999999999999999
sg47
F2.0
sg48
F1.0
sg49
F950.52999999999997
sg50
F0.0
sg51
F9.9199999999999999
sg52
F0.0
sg53
F0.0
sg54
F-1.25
sg55
F910.27999999999997
sg56
F4.79
sg57
F195.71000000000001
sg58
F0.0
sba(i__main__
Pocket
p711
(dp712
g3
F0.20999999999999999
sg4
F0.33000000000000002
sg5
F0.25
sg6
F0.0
sg7
F0.28999999999999998
sg8
F48.0
sg9
F39.289999999999999
sg10
F1.0
sg11
F16.329999999999998
sg12
F1.0
sg13
F27.940000000000001
sg14
F218.87
sg15
F0.0
sg16
S'PEP'
p713
sg18
F0.0
sg19
F1.0
sg20
F1.0
sg21
S'2hwq_unbound.pdb'
p714
sg23
F0.0
sg24
F0.0
sg25
F0.38
sg26
F3.6200000000000001
sg27
F5.0
sg28
F3.8300000000000001
sg29
F2.0
sg30
F0.01
sg31
F0.14000000000000001
sg32
F0.0
sg33
F0.0
sg34
F0.0
sg35
F0.0
sg36
F0.10000000000000001
sg37
F1.0
sg38
F9.0700000000000003
sg39
F1.0
sg40
F0.0
sg41
F0.55000000000000004
sg42
F111.09999999999999
sg43
F0.0
sg44
F0.0
sg45
F0.0
sg46
F0.38
sg47
F1.0
sg48
F0.0
sg49
F573.32000000000005
sg50
F0.0
sg51
F-4.0
sg52
F0.0
sg53
F0.0
sg54
F-1.25
sg55
F910.27999999999997
sg56
F4.1900000000000004
sg57
F107.77
sg58
F0.0
sba(i__main__
Pocket
p715
(dp716
g3
F0.13
sg4
F0.28999999999999998
sg5
F0.20000000000000001
sg6
F0.0
sg7
F0.35999999999999999
sg8
F53.0
sg9
F53.57
sg10
F2.0
sg11
F10.0
sg12
F1.0
sg13
F30.960000000000001
sg14
F221.97999999999999
sg15
F1.0
sg16
S'PEP'
p717
sg18
F1.0
sg19
F0.0
sg20
F0.0
sg21
S'2hwq_unbound.pdb'
p718
sg23
F0.0
sg24
F1.0
sg25
F0.20999999999999999
sg26
F3.8999999999999999
sg27
F4.0
sg28
F3.6200000000000001
sg29
F0.0
sg30
F0.029999999999999999
sg31
F0.11
sg32
F0.0
sg33
F0.0
sg34
F0.0
sg35
F0.0
sg36
F0.12
sg37
F1.0
sg38
F11.42
sg39
F-1.0
sg40
F0.0
sg41
F0.45000000000000001
sg42
F73.670000000000002
sg43
F0.0
sg44
F0.0
sg45
F0.0
sg46
F0.20999999999999999
sg47
F1.0
sg48
F1.0
sg49
F375.42000000000002
sg50
F1.0
sg51
F37.899999999999999
sg52
F0.0
sg53
F0.0
sg54
F-1.25
sg55
F910.27999999999997
sg56
F3.6800000000000002
sg57
F148.31999999999999
sg58
F0.0
sba(i__main__
Pocket
p719
(dp720
g3
F0.41999999999999998
sg4
F0.34000000000000002
sg5
F0.14999999999999999
sg6
F0.0
sg7
F0.40999999999999998
sg8
F44.0
sg9
F25.93
sg10
F0.0
sg11
F33.43
sg12
F0.0
sg13
F34.539999999999999
sg14
F311.87
sg15
F1.0
sg16
S'PEP'
p721
sg18
F0.0
sg19
F0.0
sg20
F0.0
sg21
S'2hwq_unbound.pdb'
p722
sg23
F0.0
sg24
F0.0
sg25
F0.80000000000000004
sg26
F4.0
sg27
F3.0
sg28
F4.3899999999999997
sg29
F1.0
sg30
F0.040000000000000001
sg31
F0.67000000000000004
sg32
F0.0
sg33
F0.0
sg34
F0.0
sg35
F0.0
sg36
F0.10000000000000001
sg37
F0.0
sg38
F12.949999999999999
sg39
F2.0
sg40
F0.0
sg41
F0.63
sg42
F237.38999999999999
sg43
F0.0
sg44
F0.0
sg45
F0.0
sg46
F0.80000000000000004
sg47
F2.0
sg48
F0.0
sg49
F796.77999999999997
sg50
F0.0
sg51
F38.5
sg52
F2.0
sg53
F0.0
sg54
F-1.25
sg55
F910.27999999999997
sg56
F4.2599999999999998
sg57
F74.480000000000004
sg58
F0.0
sba(i__main__
Pocket
p723
(dp724
g3
F0.23000000000000001
sg4
F0.27000000000000002
sg5
F0.25
sg6
F0.0
sg7
F0.28999999999999998
sg8
F40.0
sg9
F48.0
sg10
F1.0
sg11
F18.0
sg12
F1.0
sg13
F35.0
sg14
F278.00999999999999
sg15
F0.0
sg16
S'PEP'
p725
sg18
F1.0
sg19
F1.0
sg20
F0.0
sg21
S'2hwq_unbound.pdb'
p726
sg23
F0.0
sg24
F1.0
sg25
F0.46999999999999997
sg26
F3.75
sg27
F5.0
sg28
F4.6600000000000001
sg29
F0.0
sg30
F0.01
sg31
F0.20999999999999999
sg32
F0.0
sg33
F0.0
sg34
F0.0
sg35
F0.0
sg36
F0.089999999999999997
sg37
F2.0
sg38
F8.9900000000000002
sg39
F-2.0
sg40
F0.0
sg41
F0.65000000000000002
sg42
F106.27
sg43
F0.0
sg44
F0.0
sg45
F0.0
sg46
F0.46999999999999997
sg47
F0.0
sg48
F0.0
sg49
F884.78999999999996
sg50
F1.0
sg51
F5.6200000000000001
sg52
F0.0
sg53
F0.0
sg54
F-1.25
sg55
F910.27999999999997
sg56
F3.3999999999999999
sg57
F171.74000000000001
sg58
F0.0
sba(i__main__
Pocket
p727
(dp728
g3
F0.85999999999999999
sg4
F0.77000000000000002
sg5
F0.38
sg6
F0.0
sg7
F0.78000000000000003
sg8
F60.0
sg9
F28.57
sg10
F1.0
sg11
F28.84
sg12
F2.0
sg13
F1.28
sg14
F284.16000000000003
sg15
F2.0
sg16
S'PEP'
p729
sg18
F3.0
sg19
F0.0
sg20
F0.0
sg21
S'2h14_unbound.pdb'
p730
sg23
F47.890000000000001
sg24
F0.0
sg25
F0.52000000000000002
sg26
F3.5
sg27
F6.0
sg28
F4.1600000000000001
sg29
F0.0
sg30
F0.34000000000000002
sg31
F0.17000000000000001
sg32
F2.0
sg33
F1.0
sg34
F1.0
sg35
F0.0
sg36
F0.63
sg37
F0.0
sg38
F9.7599999999999998
sg39
F2.0
sg40
F1.0
sg41
F0.56000000000000005
sg42
F194.09
sg43
F0.78000000000000003
sg44
F1.0
sg45
F1.0
sg46
F0.52000000000000002
sg47
F1.0
sg48
F0.0
sg49
F794.35000000000002
sg50
F0.0
sg51
F36.210000000000001
sg52
F0.0
sg53
F1.0
sg54
F1.73
sg55
F460.75999999999999
sg56
F4.0700000000000003
sg57
F90.069999999999993
sg58
F0.0
sba(i__main__
Pocket
p731
(dp732
g3
F0.73999999999999999
sg4
F1.0
sg5
F1.0
sg6
F0.0
sg7
F1.0
sg8
F95.0
sg9
F46.149999999999999
sg10
F0.0
sg11
F24.789999999999999
sg12
F3.0
sg13
F7.7400000000000002
sg14
F312.37
sg15
F4.0
sg16
S'PEP'
p733
sg18
F2.0
sg19
F2.0
sg20
F0.0
sg21
S'2h14_unbound.pdb'
p734
sg23
F15.49
sg24
F1.0
sg25
F0.28999999999999998
sg26
F4.5199999999999996
sg27
F16.0
sg28
F3.6699999999999999
sg29
F1.0
sg30
F0.28000000000000003
sg31
F0.13
sg32
F0.0
sg33
F0.0
sg34
F0.0
sg35
F1.0
sg36
F1.0
sg37
F0.0
sg38
F12.76
sg39
F7.0
sg40
F3.0
sg41
F0.48999999999999999
sg42
F124.39
sg43
F0.02
sg44
F0.089999999999999997
sg45
F0.0
sg46
F0.28999999999999998
sg47
F2.0
sg48
F0.0
sg49
F566.84000000000003
sg50
F0.0
sg51
F20.350000000000001
sg52
F0.0
sg53
F4.0
sg54
F-1.04
sg55
F460.75999999999999
sg56
F5.2800000000000002
sg57
F187.97999999999999
sg58
F0.0
sba(i__main__
Pocket
p735
(dp736
g3
F0.60999999999999999
sg4
F0.69999999999999996
sg5
F0.5
sg6
F1.0
sg7
F0.75
sg8
F50.0
sg9
F40.619999999999997
sg10
F2.0
sg11
F20.43
sg12
F3.0
sg13
F8.6999999999999993
sg14
F48.770000000000003
sg15
F0.0
sg16
S'PEP'
p737
sg18
F0.0
sg19
F0.0
sg20
F0.0
sg21
S'2h14_unbound.pdb'
p738
sg23
F0.0
sg24
F1.0
sg25
F0.56000000000000005
sg26
F3.8599999999999999
sg27
F8.0
sg28
F3.3100000000000001
sg29
F0.0
sg30
F0.070000000000000007
sg31
F0.070000000000000007
sg32
F0.0
sg33
F0.0
sg34
F1.0
sg35
F1.0
sg36
F0.52000000000000002
sg37
F1.0
sg38
F9.2799999999999994
sg39
F0.0
sg40
F1.0
sg41
F0.44
sg42
F32.609999999999999
sg43
F0.0
sg44
F0.0
sg45
F0.0
sg46
F0.56000000000000005
sg47
F2.0
sg48
F0.0
sg49
F135.63
sg50
F0.0
sg51
F29.57
sg52
F0.0
sg53
F0.0
sg54
F-1.25
sg55
F460.75999999999999
sg56
F3.7400000000000002
sg57
F16.16
sg58
F1.0
sba(i__main__
Pocket
p739
(dp740
g3
F0.39000000000000001
sg4
F0.55000000000000004
sg5
F0.5
sg6
F1.0
sg7
F0.58999999999999997
sg8
F40.0
sg9
F41.670000000000002
sg10
F1.0
sg11
F13.0
sg12
F1.0
sg13
F15.48
sg14
F71.209999999999994
sg15
F0.0
sg16
S'PEP'
p741
sg18
F0.0
sg19
F0.0
sg20
F0.0
sg21
S'2h14_unbound.pdb'
p742
sg23
F0.0
sg24
F0.0
sg25
F0.34999999999999998
sg26
F4.3300000000000001
sg27
F8.0
sg28
F3.5
sg29
F2.0
sg30
F0.029999999999999999
sg31
F0.26000000000000001
sg32
F0.0
sg33
F0.0
sg34
F1.0
sg35
F1.0
sg36
F0.40999999999999998
sg37
F0.0
sg38
F7.1500000000000004
sg39
F2.0
sg40
F1.0
sg41
F0.42999999999999999
sg42
F39.850000000000001
sg43
F0.0
sg44
F0.0
sg45
F0.0
sg46
F0.34999999999999998
sg47
F1.0
sg48
F0.0
sg49
F198.91
sg50
F1.0
sg51
F26.25
sg52
F0.0
sg53
F1.0
sg54
F-1.25
sg55
F460.75999999999999
sg56
F2.9399999999999999
sg57
F31.359999999999999
sg58
F1.0
sba(i__main__
Pocket
p743
(dp744
g3
F0.16
sg4
F0.75
sg5
F0.31
sg6
F1.0
sg7
F0.79000000000000004
sg8
F39.0
sg9
F44.439999999999998
sg10
F0.0
sg11
F5.5
sg12
F0.0
sg13
F16.52
sg14
F202.47
sg15
F3.0
sg16
S'PEP'
p745
sg18
F1.0
sg19
F1.0
sg20
F1.0
sg21
S'2h14_unbound.pdb'
p746
sg23
F0.0
sg24
F1.0
sg25
F0.20999999999999999
sg26
F3.8199999999999998
sg27
F5.0
sg28
F3.79
sg29
F0.0
sg30
F0.01
sg31
F0.29999999999999999
sg32
F0.0
sg33
F0.0
sg34
F0.0
sg35
F0.0
sg36
F0.40000000000000002
sg37
F0.0
sg38
F9.9100000000000001
sg39
F1.0
sg40
F0.0
sg41
F0.55000000000000004
sg42
F105.06
sg43
F0.0
sg44
F0.0
sg45
F0.0
sg46
F0.20999999999999999
sg47
F1.0
sg48
F0.0
sg49
F524.89999999999998
sg50
F2.0
sg51
F17.09
sg52
F0.0
sg53
F0.0
sg54
F-1.25
sg55
F460.75999999999999
sg56
F3.9700000000000002
sg57
F97.400000000000006
sg58
F0.0
sba(i__main__
Pocket
p747
(dp748
g3
F1.0
sg4
F0.68000000000000005
sg5
F0.38
sg6
F0.0
sg7
F0.66000000000000003
sg8
F54.0
sg9
F31.030000000000001
sg10
F2.0
sg11
F33.710000000000001
sg12
F0.0
sg13
F20.859999999999999
sg14
F251.75
sg15
F1.0
sg16
S'PEP'
p749
sg18
F2.0
sg19
F1.0
sg20
F0.0
sg21
S'2h14_unbound.pdb'
p750
sg23
F0.0
sg24
F0.0
sg25
F0.65000000000000002
sg26
F4.75
sg27
F6.0
sg28
F3.8100000000000001
sg29
F0.0
sg30
F0.81999999999999995
sg31
F0.26000000000000001
sg32
F1.0
sg33
F0.0
sg34
F0.0
sg35
F0.0
sg36
F0.56000000000000005
sg37
F0.0
sg38
F8.1500000000000004
sg39
F2.0
sg40
F1.0
sg41
F0.52000000000000002
sg42
F130.41999999999999
sg43
F0.0
sg44
F0.0
sg45
F0.0
sg46
F0.65000000000000002
sg47
F1.0
sg48
F1.0
sg49
F414.35000000000002
sg50
F1.0
sg51
F52.670000000000002
sg52
F0.0
sg53
F0.0
sg54
F-1.25
sg55
F460.75999999999999
sg56
F3.6099999999999999
sg57
F121.33
sg58
F1.0
sba(i__main__
Pocket
p751
(dp752
g3
F0.59999999999999998
sg4
F1.0
sg5
F0.67000000000000004
sg6
F0.0
sg7
F0.85999999999999999
sg8
F46.0
sg9
F32.259999999999998
sg10
F0.0
sg11
F13.119999999999999
sg12
F0.0
sg13
F1.0600000000000001
sg14
F238.12
sg15
F1.0
sg16
S'PEP'
p753
sg18
F1.0
sg19
F2.0
sg20
F1.0
sg21
S'2hpj_unbound.pdb'
p754
sg23
F60.780000000000001
sg24
F0.0
sg25
F0.34999999999999998
sg26
F3.6699999999999999
sg27
F4.0
sg28
F4.0199999999999996
sg29
F0.0
sg30
F0.040000000000000001
sg31
F0.25
sg32
F2.0
sg33
F1.0
sg34
F1.0
sg35
F0.0
sg36
F1.0
sg37
F0.0
sg38
F9.1899999999999995
sg39
F3.0
sg40
F0.0
sg41
F0.55000000000000004
sg42
F111.09999999999999
sg43
F0.95999999999999996
sg44
F1.0
sg45
F1.0
sg46
F0.34999999999999998
sg47
F1.0
sg48
F0.0
sg49
F543.89999999999998
sg50
F0.0
sg51
F12.44
sg52
F0.0
sg53
F0.0
sg54
F1.95
sg55
F448.16000000000003
sg56
F4.2000000000000002
sg57
F127.02
sg58
F0.0
sba(i__main__
Pocket
p755
(dp756
g3
F0.38
sg4
F0.88
sg5
F0.67000000000000004
sg6
F0.0
sg7
F1.0
sg8
F40.0
sg9
F34.780000000000001
sg10
F1.0
sg11
F8.4000000000000004
sg12
F2.0
sg13
F23.329999999999998
sg14
F228.05000000000001
sg15
F0.0
sg16
S'PEP'
p757
sg18
F2.0
sg19
F0.0
sg20
F0.0
sg21
S'2hpj_unbound.pdb'
p758
sg23
F0.0
sg24
F0.0
sg25
F0.25
sg26
F3.6200000000000001
sg27
F4.0
sg28
F4.1399999999999997
sg29
F0.0
sg30
F0.070000000000000007
sg31
F0.28999999999999998
sg32
F0.0
sg33
F0.0
sg34
F0.0
sg35
F0.0
sg36
F0.87
sg37
F1.0
sg38
F10.869999999999999
sg39
F-1.0
sg40
F1.0
sg41
F0.65000000000000002
sg42
F149.75
sg43
F0.0
sg44
F0.0
sg45
F0.0
sg46
F0.25
sg47
F0.0
sg48
F0.0
sg49
F742.92999999999995
sg50
F1.0
sg51
F35.880000000000003
sg52
F0.0
sg53
F0.0
sg54
F-1.25
sg55
F448.16000000000003
sg56
F3.7400000000000002
sg57
F78.310000000000002
sg58
F0.0
sba(i__main__
Pocket
p759
(dp760
g3
F0.41999999999999998
sg4
F0.62
sg5
F0.5
sg6
F0.0
sg7
F0.68999999999999995
sg8
F50.0
sg9
F28.120000000000001
sg10
F2.0
sg11
F39.409999999999997
sg12
F1.0
sg13
F2.7799999999999998
sg14
F162.30000000000001
sg15
F0.0
sg16
S'PEP'
p761
sg18
F1.0
sg19
F0.0
sg20
F0.0
sg21
S'1ie9_unbound.pdb'
p762
sg23
F30.300000000000001
sg24
F0.0
sg25
F0.88
sg26
F3.4199999999999999
sg27
F5.0
sg28
F3.52
sg29
F0.0
sg30
F0.040000000000000001
sg31
F0.17000000000000001
sg32
F0.0
sg33
F1.0
sg34
F4.0
sg35
F0.0
sg36
F0.31
sg37
F1.0
sg38
F11.300000000000001
sg39
F0.0
sg40
F2.0
sg41
F0.46000000000000002
sg42
F128.00999999999999
sg43
F0.46000000000000002
sg44
F1.0
sg45
F1.0
sg46
F0.88
sg47
F1.0
sg48
F0.0
sg49
F327.06
sg50
F0.0
sg51
F31.75
sg52
F0.0
sg53
F0.0
sg54
F1.3300000000000001
sg55
F968.52999999999997
sg56
F4.0599999999999996
sg57
F34.289999999999999
sg58
F0.0
sba(i__main__
Pocket
p763
(dp764
g3
F0.089999999999999997
sg4
F0.66000000000000003
sg5
F0.29999999999999999
sg6
F0.0
sg7
F0.62
sg8
F36.0
sg9
F29.629999999999999
sg10
F1.0
sg11
F8.1999999999999993
sg12
F0.0
sg13
F7.25
sg14
F245.19
sg15
F1.0
sg16
S'PEP'
p765
sg18
F1.0
sg19
F0.0
sg20
F0.0
sg21
S'1ie9_unbound.pdb'
p766
sg23
F12.119999999999999
sg24
F0.0
sg25
F0.28000000000000003
sg26
F3.8799999999999999
sg27
F3.0
sg28
F4.2599999999999998
sg29
F1.0
sg30
F0.059999999999999998
sg31
F0.050000000000000003
sg32
F1.0
sg33
F0.0
sg34
F0.0
sg35
F1.0
sg36
F0.22
sg37
F0.0
sg38
F10.01
sg39
F0.0
sg40
F0.0
sg41
F0.68999999999999995
sg42
F163.03
sg43
F0.029999999999999999
sg44
F0.12
sg45
F0.0
sg46
F0.28000000000000003
sg47
F0.0
sg48
F1.0
sg49
F783.52999999999997
sg50
F1.0
sg51
F47.25
sg52
F0.0
sg53
F0.0
sg54
F-0.96999999999999997
sg55
F968.52999999999997
sg56
F4.3200000000000003
sg57
F82.159999999999997
sg58
F0.0
sba(i__main__
Pocket
p767
(dp768
g3
F0.17000000000000001
sg4
F0.83999999999999997
sg5
F0.90000000000000002
sg6
F1.0
sg7
F0.76000000000000001
sg8
F67.0
sg9
F51.219999999999999
sg10
F0.0
sg11
F16.32
sg12
F0.0
sg13
F10.949999999999999
sg14
F440.45999999999998
sg15
F1.0
sg16
S'PEP'
p769
sg18
F2.0
sg19
F1.0
sg20
F3.0
sg21
S'1ie9_unbound.pdb'
p770
sg23
F6.0599999999999996
sg24
F0.0
sg25
F0.28000000000000003
sg26
F4.0700000000000003
sg27
F9.0
sg28
F4.4100000000000001
sg29
F0.0
sg30
F0.02
sg31
F0.31
sg32
F0.0
sg33
F0.0
sg34
F0.0
sg35
F0.0
sg36
F0.41999999999999998
sg37
F2.0
sg38
F12.43
sg39
F0.0
sg40
F2.0
sg41
F0.62
sg42
F165.44999999999999
sg43
F0.0
sg44
F0.0
sg45
F0.0
sg46
F0.28000000000000003
sg47
F1.0
sg48
F0.0
sg49
F977.99000000000001
sg50
F1.0
sg51
F2.4300000000000002
sg52
F0.0
sg53
F0.0
sg54
F-1.25
sg55
F968.52999999999997
sg56
F5.5099999999999998
sg57
F275.00999999999999
sg58
F0.0
sba(i__main__
Pocket
p771
(dp772
g3
F0.29999999999999999
sg4
F0.37
sg5
F0.69999999999999996
sg6
F0.0
sg7
F0.42999999999999999
sg8
F41.0
sg9
F24.0
sg10
F0.0
sg11
F28.800000000000001
sg12
F0.0
sg13
F13.32
sg14
F39.509999999999998
sg15
F1.0
sg16
S'PEP'
p773
sg18
F0.0
sg19
F0.0
sg20
F1.0
sg21
S'1ie9_unbound.pdb'
p774
sg23
F0.0
sg24
F2.0
sg25
F0.72999999999999998
sg26
F5.0
sg27
F7.0
sg28
F3.3999999999999999
sg29
F0.0
sg30
F0.059999999999999998
sg31
F0.050000000000000003
sg32
F0.0
sg33
F0.0
sg34
F0.0
sg35
F1.0
sg36
F0.25
sg37
F0.0
sg38
F6.7199999999999998
sg39
F-1.0
sg40
F3.0
sg41
F0.42999999999999999
sg42
F23.100000000000001
sg43
F0.0
sg44
F0.0
sg45
F0.0
sg46
F0.72999999999999998
sg47
F1.0
sg48
F0.0
sg49
F152.94
sg50
F0.0
sg51
F35.0
sg52
F1.0
sg53
F0.0
sg54
F-1.25
sg55
F968.52999999999997
sg56
F2.4900000000000002
sg57
F16.399999999999999
sg58
F0.0
sba(i__main__
Pocket
p775
(dp776
g3
F1.0
sg4
F1.0
sg5
F1.0
sg6
F0.0
sg7
F1.0
sg8
F158.0
sg9
F18.920000000000002
sg10
F7.0
sg11
F94.909999999999997
sg12
F2.0
sg13
F16.620000000000001
sg14
F400.60000000000002
sg15
F2.0
sg16
S'PEP'
p777
sg18
F3.0
sg19
F0.0
sg20
F1.0
sg21
S'1ie9_unbound.pdb'
p778
sg23
F0.0
sg24
F2.0
sg25
F0.85999999999999999
sg26
F4.2999999999999998
sg27
F10.0
sg28
F3.9900000000000002
sg29
F0.0
sg30
F0.94999999999999996
sg31
F0.080000000000000002
sg32
F4.0
sg33
F0.0
sg34
F2.0
sg35
F0.0
sg36
F1.0
sg37
F0.0
sg38
F16.789999999999999
sg39
F-1.0
sg40
F3.0
sg41
F0.52000000000000002
sg42
F342.07999999999998
sg43
F0.0
sg44
F0.0
sg45
F0.0
sg46
F0.85999999999999999
sg47
F0.0
sg48
F1.0
sg49
F834.70000000000005
sg50
F0.0
sg51
F53.030000000000001
sg52
F1.0
sg53
F1.0
sg54
F-1.25
sg55
F968.52999999999997
sg56
F6.5300000000000002
sg57
F58.520000000000003
sg58
F1.0
sba(i__main__
Pocket
p779
(dp780
g3
F0.23000000000000001
sg4
F0.52000000000000002
sg5
F0.29999999999999999
sg6
F1.0
sg7
F0.47999999999999998
sg8
F48.0
sg9
F46.670000000000002
sg10
F0.0
sg11
F21.91
sg12
F0.0
sg13
F16.809999999999999
sg14
F225.40000000000001
sg15
F0.0
sg16
S'PEP'
p781
sg18
F0.0
sg19
F0.0
sg20
F2.0
sg21
S'1ie9_unbound.pdb'
p782
sg23
F0.0
sg24
F0.0
sg25
F0.47999999999999998
sg26
F3.1099999999999999
sg27
F3.0
sg28
F3.8700000000000001
sg29
F1.0
sg30
F0.01
sg31
F0.48999999999999999
sg32
F0.0
sg33
F0.0
sg34
F2.0
sg35
F0.0
sg36
F0.29999999999999999
sg37
F1.0
sg38
F7.5599999999999996
sg39
F-1.0
sg40
F0.0
sg41
F0.56000000000000005
sg42
F73.670000000000002
sg43
F0.0
sg44
F0.0
sg45
F0.0
sg46
F0.47999999999999998
sg47
F0.0
sg48
F0.0
sg49
F537.53999999999996
sg50
F1.0
sg51
F-1.5600000000000001
sg52
F1.0
sg53
F0.0
sg54
F-1.25
sg55
F968.52999999999997
sg56
F3.4300000000000002
sg57
F151.72999999999999
sg58
F0.0
sba(i__main__
Pocket
p783
(dp784
g3
F0.080000000000000002
sg4
F0.59999999999999998
sg5
F0.5
sg6
F0.0
sg7
F0.55000000000000004
sg8
F57.0
sg9
F54.840000000000003
sg10
F1.0
sg11
F8.0
sg12
F1.0
sg13
F19.399999999999999
sg14
F237.69999999999999
sg15
F0.0
sg16
S'PEP'
p785
sg18
F2.0
sg19
F0.0
sg20
F2.0
sg21
S'1ie9_unbound.pdb'
p786
sg23
F0.0
sg24
F0.0
sg25
F0.16
sg26
F3.23
sg27
F5.0
sg28
F3.9700000000000002
sg29
F1.0
sg30
F0.01
sg31
F0.23000000000000001
sg32
F1.0
sg33
F0.0
sg34
F2.0
sg35
F0.0
sg36
F0.35999999999999999
sg37
F1.0
sg38
F8.6999999999999993
sg39
F0.0
sg40
F0.0
sg41
F0.54000000000000004
sg42
F117.14
sg43
F0.0
sg44
F0.0
sg45
F0.0
sg46
F0.16
sg47
F0.0
sg48
F1.0
sg49
F441.47000000000003
sg50
F0.0
sg51
F9.0
sg52
F0.0
sg53
F1.0
sg54
F-1.25
sg55
F968.52999999999997
sg56
F3.9199999999999999
sg57
F120.56
sg58
F0.0
sba(i__main__
Pocket
p787
(dp788
g3
F0.22
sg4
F0.60999999999999999
sg5
F0.69999999999999996
sg6
F1.0
sg7
F0.58999999999999997
sg8
F41.0
sg9
F42.859999999999999
sg10
F2.0
sg11
F20.73
sg12
F0.0
sg13
F23.079999999999998
sg14
F292.83999999999997
sg15
F0.0
sg16
S'PEP'
p789
sg18
F1.0
sg19
F0.0
sg20
F0.0
sg21
S'1ie9_unbound.pdb'
p790
sg23
F0.0
sg24
F0.0
sg25
F0.54000000000000004
sg26
F4.7000000000000002
sg27
F7.0
sg28
F4.1600000000000001
sg29
F0.0
sg30
F0.040000000000000001
sg31
F0.29999999999999999
sg32
F0.0
sg33
F0.0
sg34
F0.0
sg35
F0.0
sg36
F0.25
sg37
F2.0
sg38
F9.4100000000000001
sg39
F0.0
sg40
F1.0
sg41
F0.62
sg42
F221.03
sg43
F0.0
sg44
F0.0
sg45
F0.0
sg46
F0.54000000000000004
sg47
F1.0
sg48
F1.0
sg49
F724.71000000000004
sg50
F0.0
sg51
F26.399999999999999
sg52
F0.0
sg53
F1.0
sg54
F-1.25
sg55
F968.52999999999997
sg56
F4.0199999999999996
sg57
F71.810000000000002
sg58
F0.0
sba(i__main__
Pocket
p791
(dp792
g3
F0.27000000000000002
sg4
F0.62
sg5
F0.69999999999999996
sg6
F0.0
sg7
F0.65000000000000002
sg8
F79.0
sg9
F39.530000000000001
sg10
F4.0
sg11
F25.420000000000002
sg12
F0.0
sg13
F24.18
sg14
F240.72999999999999
sg15
F0.0
sg16
S'PEP'
p793
sg18
F0.0
sg19
F2.0
sg20
F0.0
sg21
S'1ie9_unbound.pdb'
p794
sg23
F0.0
sg24
F2.0
sg25
F0.39000000000000001
sg26
F4.5800000000000001
sg27
F7.0
sg28
F4.0199999999999996
sg29
F0.0
sg30
F0.029999999999999999
sg31
F0.14000000000000001
sg32
F0.0
sg33
F0.0
sg34
F0.0
sg35
F0.0
sg36
F0.5
sg37
F2.0
sg38
F10.550000000000001
sg39
F-1.0
sg40
F0.0
sg41
F0.56999999999999995
sg42
F94.189999999999998
sg43
F0.0
sg44
F0.0
sg45
F0.0
sg46
F0.39000000000000001
sg47
F1.0
sg48
F0.0
sg49
F567.17999999999995
sg50
F0.0
sg51
F23.579999999999998
sg52
F1.0
sg53
F0.0
sg54
F-1.25
sg55
F968.52999999999997
sg56
F4.0599999999999996
sg57
F146.53999999999999
sg58
F0.0
sba(i__main__
Pocket
p795
(dp796
g3
F0.64000000000000001
sg4
F0.78000000000000003
sg5
F1.0
sg6
F2.0
sg7
F0.76000000000000001
sg8
F38.0
sg9
F42.859999999999999
sg10
F1.0
sg11
F14.0
sg12
F0.0
sg13
F20.989999999999998
sg14
F253.78999999999999
sg15
F0.0
sg16
S'PEP'
p797
sg18
F0.0
sg19
F0.0
sg20
F1.0
sg21
S'2o9s_unbound.pdb'
p798
sg23
F0.0
sg24
F0.0
sg25
F0.39000000000000001
sg26
F3.2000000000000002
sg27
F5.0
sg28
F4.8499999999999996
sg29
F1.0
sg30
F0.12
sg31
F0.68999999999999995
sg32
F0.0
sg33
F0.0
sg34
F2.0
sg35
F2.0
sg36
F1.0
sg37
F0.0
sg38
F7.4900000000000002
sg39
F0.0
sg40
F0.0
sg41
F0.56999999999999995
sg42
F146.12
sg43
F0.0
sg44
F0.0
sg45
F0.0
sg46
F0.39000000000000001
sg47
F0.0
sg48
F0.0
sg49
F710.62
sg50
F1.0
sg51
F10.5
sg52
F0.0
sg53
F0.0
sg54
F-1.25
sg55
F736.15999999999997
sg56
F3.4700000000000002
sg57
F107.67
sg58
F0.0
sba(i__main__
Pocket
p799
(dp800
g3
F0.57999999999999996
sg4
F0.66000000000000003
sg5
F0.57999999999999996
sg6
F1.0
sg7
F0.70999999999999996
sg8
F76.0
sg9
F29.550000000000001
sg10
F4.0
sg11
F39.75
sg12
F1.0
sg13
F2.73
sg14
F275.81
sg15
F0.0
sg16
S'PEP'
p801
sg18
F0.0
sg19
F0.0
sg20
F0.0
sg21
S'2znn_unbound.pdb'
p802
sg23
F38.670000000000002
sg24
F0.0
sg25
F0.85999999999999999
sg26
F4.4299999999999997
sg27
F7.0
sg28
F3.8399999999999999
sg29
F0.0
sg30
F0.23999999999999999
sg31
F0.32000000000000001
sg32
F0.0
sg33
F1.0
sg34
F2.0
sg35
F1.0
sg36
F0.35999999999999999
sg37
F1.0
sg38
F12.77
sg39
F0.0
sg40
F3.0
sg41
F0.51000000000000001
sg42
F240.31999999999999
sg43
F0.64000000000000001
sg44
F1.0
sg45
F1.0
sg46
F0.85999999999999999
sg47
F1.0
sg48
F0.0
sg49
F593.05999999999995
sg50
F0.0
sg51
F48.859999999999999
sg52
F0.0
sg53
F0.0
sg54
F1.5600000000000001
sg55
F1063.6099999999999
sg56
F5.75
sg57
F35.490000000000002
sg58
F0.0
sba(i__main__
Pocket
p803
(dp804
g3
F0.42999999999999999
sg4
F0.52000000000000002
sg5
F0.41999999999999998
sg6
F0.0
sg7
F0.58999999999999997
sg8
F51.0
sg9
F44.829999999999998
sg10
F1.0
sg11
F29.699999999999999
sg12
F1.0
sg13
F9.1600000000000001
sg14
F280.63
sg15
F0.0
sg16
S'PEP'
p805
sg18
F0.0
sg19
F0.0
sg20
F0.0
sg21
S'2znn_unbound.pdb'
p806
sg23
F1.3300000000000001
sg24
F2.0
sg25
F0.65000000000000002
sg26
F4.8899999999999997
sg27
F5.0
sg28
F3.6899999999999999
sg29
F0.0
sg30
F0.029999999999999999
sg31
F0.40999999999999998
sg32
F0.0
sg33
F0.0
sg34
F0.0
sg35
F0.0
sg36
F0.23999999999999999
sg37
F1.0
sg38
F10.41
sg39
F-2.0
sg40
F1.0
sg41
F0.54000000000000004
sg42
F185.30000000000001
sg43
F0.0
sg44
F0.0
sg45
F0.0
sg46
F0.65000000000000002
sg47
F0.0
sg48
F1.0
sg49
F706.61000000000001
sg50
F1.0
sg51
F31.109999999999999
sg52
F0.0
sg53
F1.0
sg54
F-1.25
sg55
F1063.6099999999999
sg56
F4.5099999999999998
sg57
F95.329999999999998
sg58
F0.0
sba(i__main__
Pocket
p807
(dp808
g3
F0.10000000000000001
sg4
F0.44
sg5
F0.41999999999999998
sg6
F0.0
sg7
F0.5
sg8
F39.0
sg9
F53.850000000000001
sg10
F0.0
sg11
F7.0
sg12
F2.0
sg13
F12.029999999999999
sg14
F274.77999999999997
sg15
F1.0
sg16
S'PEP'
p809
sg18
F0.0
sg19
F1.0
sg20
F1.0
sg21
S'2znn_unbound.pdb'
p810
sg23
F1.3300000000000001
sg24
F0.0
sg25
F0.20999999999999999
sg26
F3.3300000000000001
sg27
F5.0
sg28
F4.2199999999999998
sg29
F0.0
sg30
F0.01
sg31
F0.40000000000000002
sg32
F0.0
sg33
F0.0
sg34
F0.0
sg35
F0.0
sg36
F0.17999999999999999
sg37
F2.0
sg38
F8.7300000000000004
sg39
F1.0
sg40
F0.0
sg41
F0.56999999999999995
sg42
F113.52
sg43
F0.0
sg44
F0.0
sg45
F0.0
sg46
F0.20999999999999999
sg47
F2.0
sg48
F0.0
sg49
F587.95000000000005
sg50
F0.0
sg51
F-3.5600000000000001
sg52
F0.0
sg53
F0.0
sg54
F-1.25
sg55
F1063.6099999999999
sg56
F3.8700000000000001
sg57
F161.25999999999999
sg58
F0.0
sba(i__main__
Pocket
p811
(dp812
g3
F0.46999999999999997
sg4
F0.5
sg5
F0.57999999999999996
sg6
F0.0
sg7
F0.53000000000000003
sg8
F39.0
sg9
F28.0
sg10
F2.0
sg11
F32.0
sg12
F0.0
sg13
F14.9
sg14
F289.72000000000003
sg15
F0.0
sg16
S'PEP'
p813
sg18
F0.0
sg19
F0.0
sg20
F0.0
sg21
S'2znn_unbound.pdb'
p814
sg23
F0.0
sg24
F1.0
sg25
F0.87
sg26
F5.0
sg27
F7.0
sg28
F4.2699999999999996
sg29
F0.0
sg30
F0.040000000000000001
sg31
F0.35999999999999999
sg32
F1.0
sg33
F0.0
sg34
F0.0
sg35
F1.0
sg36
F0.17999999999999999
sg37
F1.0
sg38
F9.1699999999999999
sg39
F1.0
sg40
F1.0
sg41
F0.60999999999999999
sg42
F203.65000000000001
sg43
F0.0
sg44
F0.0
sg45
F0.0
sg46
F0.87
sg47
F1.0
sg48
F0.0
sg49
F661.90999999999997
sg50
F0.0
sg51
F27.800000000000001
sg52
F0.0
sg53
F2.0
sg54
F-1.25
sg55
F1063.6099999999999
sg56
F4.3799999999999999
sg57
F86.069999999999993
sg58
F0.0
sba(i__main__
Pocket
p815
(dp816
g3
F0.66000000000000003
sg4
F0.67000000000000004
sg5
F1.0
sg6
F1.0
sg7
F0.71999999999999997
sg8
F151.0
sg9
F36.840000000000003
sg10
F2.0
sg11
F45.630000000000003
sg12
F1.0
sg13
F15.539999999999999
sg14
F385.23000000000002
sg15
F1.0
sg16
S'PEP'
p817
sg18
F2.0
sg19
F2.0
sg20
F0.0
sg21
S'2znn_unbound.pdb'
p818
sg23
F0.0
sg24
F0.0
sg25
F0.42999999999999999
sg26
F4.1399999999999997
sg27
F12.0
sg28
F3.7000000000000002
sg29
F0.0
sg30
F0.35999999999999999
sg31
F0.17999999999999999
sg32
F2.0
sg33
F0.0
sg34
F1.0
sg35
F2.0
sg36
F0.71999999999999997
sg37
F2.0
sg38
F12.94
sg39
F1.0
sg40
F2.0
sg41
F0.53000000000000003
sg42
F234.52000000000001
sg43
F0.0
sg44
F0.0
sg45
F0.0
sg46
F0.42999999999999999
sg47
F1.0
sg48
F0.0
sg49
F720.88999999999999
sg50
F0.0
sg51
F35.590000000000003
sg52
F3.0
sg53
F0.0
sg54
F-1.25
sg55
F1063.6099999999999
sg56
F5.8099999999999996
sg57
F150.71000000000001
sg58
F0.0
sba(i__main__
Pocket
p819
(dp820
g3
F0.28000000000000003
sg4
F0.47999999999999998
sg5
F0.5
sg6
F0.0
sg7
F0.55000000000000004
sg8
F55.0
sg9
F43.75
sg10
F1.0
sg11
F19.0
sg12
F2.0
sg13
F16.98
sg14
F239.63999999999999
sg15
F1.0
sg16
S'PEP'
p821
sg18
F0.0
sg19
F2.0
sg20
F1.0
sg21
S'2znn_unbound.pdb'
p822
sg23
F0.0
sg24
F1.0
sg25
F0.35999999999999999
sg26
F4.3300000000000001
sg27
F6.0
sg28
F3.7000000000000002
sg29
F1.0
sg30
F0.02
sg31
F0.51000000000000001
sg32
F0.0
sg33
F0.0
sg34
F0.0
sg35
F0.0
sg36
F0.26000000000000001
sg37
F0.0
sg38
F9.5099999999999998
sg39
F2.0
sg40
F1.0
sg41
F0.46999999999999997
sg42
F123.18000000000001
sg43
F0.0
sg44
F0.0
sg45
F0.0
sg46
F0.35999999999999999
sg47
F1.0
sg48
F1.0
sg49
F403.73000000000002
sg50
F0.0
sg51
F23.670000000000002
sg52
F0.0
sg53
F0.0
sg54
F-1.25
sg55
F1063.6099999999999
sg56
F4.1600000000000001
sg57
F116.45999999999999
sg58
F0.0
sba(i__main__
Pocket
p823
(dp824
g3
F1.0
sg4
F1.0
sg5
F1.0
sg6
F0.0
sg7
F1.0
sg8
F209.0
sg9
F22.640000000000001
sg10
F7.0
sg11
F68.739999999999995
sg12
F2.0
sg13
F18.23
sg14
F713.53999999999996
sg15
F4.0
sg16
S'PEP'
p825
sg18
F1.0
sg19
F0.0
sg20
F1.0
sg21
S'2znn_unbound.pdb'
p826
sg23
F0.0
sg24
F1.0
sg25
F0.82999999999999996
sg26
F4.1100000000000003
sg27
F12.0
sg28
F3.8300000000000001
sg29
F0.0
sg30
F0.91000000000000003
sg31
F0.22
sg32
F3.0
sg33
F0.0
sg34
F5.0
sg35
F1.0
sg36
F1.0
sg37
F2.0
sg38
F18.27
sg39
F1.0
sg40
F3.0
sg41
F0.47999999999999998
sg42
F619.97000000000003
sg43
F0.0
sg44
F0.0
sg45
F0.0
sg46
F0.82999999999999996
sg47
F1.0
sg48
F1.0
sg49
F1246.79
sg50
F0.0
sg51
F43.890000000000001
sg52
F3.0
sg53
F3.0
sg54
F-1.25
sg55
F1063.6099999999999
sg56
F8.6699999999999999
sg57
F93.569999999999993
sg58
F0.0
sba(i__main__
Pocket
p827
(dp828
g3
F0.31
sg4
F0.31
sg5
F0.33000000000000002
sg6
F0.0
sg7
F0.39000000000000001
sg8
F44.0
sg9
F38.460000000000001
sg10
F1.0
sg11
F21.0
sg12
F0.0
sg13
F24.66
sg14
F216.03
sg15
F1.0
sg16
S'PEP'
p829
sg18
F0.0
sg19
F0.0
sg20
F0.0
sg21
S'2znn_unbound.pdb'
p830
sg23
F0.0
sg24
F0.0
sg25
F0.5
sg26
F4.0
sg27
F4.0
sg28
F4.6900000000000004
sg29
F2.0
sg30
F0.02
sg31
F0.14000000000000001
sg32
F0.0
sg33
F0.0
sg34
F0.0
sg35
F0.0
sg36
F0.20999999999999999
sg37
F1.0
sg38
F6.54
sg39
F0.0
sg40
F0.0
sg41
F0.70999999999999996
sg42
F119.56
sg43
F0.0
sg44
F0.0
sg45
F0.0
sg46
F0.5
sg47
F1.0
sg48
F1.0
sg49
F522.23000000000002
sg50
F1.0
sg51
F27.379999999999999
sg52
F0.0
sg53
F0.0
sg54
F-1.25
sg55
F1063.6099999999999
sg56
F2.7400000000000002
sg57
F96.480000000000004
sg58
F0.0
sba(i__main__
Pocket
p831
(dp832
g3
F0.55000000000000004
sg4
F0.63
sg5
F0.67000000000000004
sg6
F0.0
sg7
F0.80000000000000004
sg8
F86.0
sg9
F40.43
sg10
F2.0
sg11
F38.039999999999999
sg12
F1.0
sg13
F27.460000000000001
sg14
F416.63
sg15
F0.0
sg16
S'PEP'
p833
sg18
F2.0
sg19
F1.0
sg20
F0.0
sg21
S'2znn_unbound.pdb'
p834
sg23
F0.0
sg24
F1.0
sg25
F0.52000000000000002
sg26
F4.2300000000000004
sg27
F8.0
sg28
F4.1699999999999999
sg29
F1.0
sg30
F0.10000000000000001
sg31
F0.46000000000000002
sg32
F1.0
sg33
F0.0
sg34
F0.0
sg35
F0.0
sg36
F0.40999999999999998
sg37
F0.0
sg38
F14.470000000000001
sg39
F2.0
sg40
F1.0
sg41
F0.57999999999999996
sg42
F265.68000000000001
sg43
F0.0
sg44
F0.0
sg45
F0.0
sg46
F0.52000000000000002
sg47
F2.0
sg48
F1.0
sg49
F1032.21
sg50
F0.0
sg51
F33.539999999999999
sg52
F0.0
sg53
F0.0
sg54
F-1.25
sg55
F1063.6099999999999
sg56
F5.4900000000000002
sg57
F150.96000000000001
sg58
F0.0
sba(i__main__
Pocket
p835
(dp836
g3
F0.46000000000000002
sg4
F0.29999999999999999
sg5
F0.25
sg6
F1.0
sg7
F0.40999999999999998
sg8
F40.0
sg9
F20.829999999999998
sg10
F1.0
sg11
F31.579999999999998
sg12
F1.0
sg13
F28.670000000000002
sg14
F105.83
sg15
F1.0
sg16
S'PEP'
p837
sg18
F0.0
sg19
F1.0
sg20
F0.0
sg21
S'2znn_unbound.pdb'
p838
sg23
F0.0
sg24
F0.0
sg25
F0.81999999999999995
sg26
F3.6200000000000001
sg27
F3.0
sg28
F3.3799999999999999
sg29
F0.0
sg30
F0.029999999999999999
sg31
F0.20000000000000001
sg32
F0.0
sg33
F0.0
sg34
F1.0
sg35
F1.0
sg36
F0.19
sg37
F0.0
sg38
F6.8499999999999996
sg39
F1.0
sg40
F0.0
sg41
F0.44
sg42
F83.329999999999998
sg43
F0.0
sg44
F0.0
sg45
F0.0
sg46
F0.81999999999999995
sg47
F0.0
sg48
F0.0
sg49
F152.59
sg50
F0.0
sg51
F33.25
sg52
F1.0
sg53
F0.0
sg54
F-1.25
sg55
F1063.6099999999999
sg56
F2.6099999999999999
sg57
F22.5
sg58
F0.0
sba(i__main__
Pocket
p839
(dp840
g3
F0.17999999999999999
sg4
F0.53000000000000003
sg5
F0.57999999999999996
sg6
F0.0
sg7
F0.57999999999999996
sg8
F55.0
sg9
F48.479999999999997
sg10
F1.0
sg11
F12.43
sg12
F1.0
sg13
F29.890000000000001
sg14
F324.86000000000001
sg15
F0.0
sg16
S'PEP'
p841
sg18
F2.0
sg19
F2.0
sg20
F1.0
sg21
S'2znn_unbound.pdb'
p842
sg23
F0.0
sg24
F0.0
sg25
F0.25
sg26
F3.9199999999999999
sg27
F7.0
sg28
F4.3200000000000003
sg29
F0.0
sg30
F0.02
sg31
F0.20000000000000001
sg32
F0.0
sg33
F0.0
sg34
F0.0
sg35
F0.0
sg36
F0.26000000000000001
sg37
F1.0
sg38
F10.23
sg39
F3.0
sg40
F0.0
sg41
F0.55000000000000004
sg42
F150.69999999999999
sg43
F0.0
sg44
F0.0
sg45
F0.0
sg46
F0.25
sg47
F2.0
sg48
F0.0
sg49
F902.03999999999996
sg50
F0.0
sg51
F16.079999999999998
sg52
F2.0
sg53
F0.0
sg54
F-1.25
sg55
F1063.6099999999999
sg56
F4.5999999999999996
sg57
F174.16
sg58
F0.0
sba(i__main__
Pocket
p843
(dp844
g3
F0.25
sg4
F0.41999999999999998
sg5
F0.17000000000000001
sg6
F0.0
sg7
F0.5
sg8
F55.0
sg9
F45.159999999999997
sg10
F2.0
sg11
F17.0
sg12
F0.0
sg13
F31.899999999999999
sg14
F257.19
sg15
F1.0
sg16
S'PEP'
p845
sg18
F0.0
sg19
F0.0
sg20
F1.0
sg21
S'2znn_unbound.pdb'
p846
sg23
F0.0
sg24
F1.0
sg25
F0.33000000000000002
sg26
F4.0
sg27
F2.0
sg28
F4.1299999999999999
sg29
F1.0
sg30
F0.029999999999999999
sg31
F0.20999999999999999
sg32
F0.0
sg33
F0.0
sg34
F1.0
sg35
F0.0
sg36
F0.26000000000000001
sg37
F0.0
sg38
F8.6400000000000006
sg39
F-1.0
sg40
F0.0
sg41
F0.53000000000000003
sg42
F147.33000000000001
sg43
F0.0
sg44
F0.0
sg45
F0.0
sg46
F0.33000000000000002
sg47
F0.0
sg48
F1.0
sg49
F645.48000000000002
sg50
F2.0
sg51
F39.0
sg52
F0.0
sg53
F0.0
sg54
F-1.25
sg55
F1063.6099999999999
sg56
F3.7000000000000002
sg57
F109.86
sg58
F0.0
sba(i__main__
Pocket
p847
(dp848
g3
F0.93000000000000005
sg4
F0.68999999999999995
sg5
F0.20000000000000001
sg6
F0.0
sg7
F0.60999999999999999
sg8
F38.0
sg9
F22.219999999999999
sg10
F3.0
sg11
F28.300000000000001
sg12
F0.0
sg13
F1.23
sg14
F175.41
sg15
F1.0
sg16
S'PEP'
p849
sg18
F0.0
sg19
F0.0
sg20
F1.0
sg21
S'1ugm_unbound.pdb'
p850
sg23
F24.420000000000002
sg24
F0.0
sg25
F0.87
sg26
F3.73
sg27
F2.0
sg28
F3.4900000000000002
sg29
F0.0
sg30
F0.54000000000000004
sg31
F0.17999999999999999
sg32
F0.0
sg33
F1.0
sg34
F3.0
sg35
F0.0
sg36
F0.48999999999999999
sg37
F0.0
sg38
F8.6699999999999999
sg39
F1.0
sg40
F1.0
sg41
F0.46000000000000002
sg42
F101.44
sg43
F0.73999999999999999
sg44
F1.0
sg45
F1.0
sg46
F0.87
sg47
F1.0
sg48
F0.0
sg49
F283.13999999999999
sg50
F1.0
sg51
F43.549999999999997
sg52
F0.0
sg53
F0.0
sg54
F1.6699999999999999
sg55
F769.35000000000002
sg56
F4.1500000000000004
sg57
F73.969999999999999
sg58
F0.0
sba(i__main__
Pocket
p851
(dp852
g3
F0.23000000000000001
sg4
F0.58999999999999997
sg5
F0.69999999999999996
sg6
F0.0
sg7
F0.57999999999999996
sg8
F44.0
sg9
F51.719999999999999
sg10
F1.0
sg11
F7.0
sg12
F0.0
sg13
F8.5800000000000001
sg14
F229.46000000000001
sg15
F0.0
sg16
S'PEP'
p853
sg18
F0.0
sg19
F0.0
sg20
F2.0
sg21
S'1ugm_unbound.pdb'
p854
sg23
F4.6500000000000004
sg24
F0.0
sg25
F0.17999999999999999
sg26
F3.75
sg27
F7.0
sg28
F4.0
sg29
F1.0
sg30
F0.02
sg31
F0.40999999999999998
sg32
F1.0
sg33
F0.0
sg34
F1.0
sg35
F1.0
sg36
F0.56999999999999995
sg37
F1.0
sg38
F8.1999999999999993
sg39
F2.0
sg40
F1.0
sg41
F0.53000000000000003
sg42
F108.69
sg43
F0.0
sg44
F0.0
sg45
F0.0
sg46
F0.17999999999999999
sg47
F3.0
sg48
F0.0
sg49
F342.05000000000001
sg50
F0.0
sg51
F11.17
sg52
F0.0
sg53
F0.0
sg54
F-1.25
sg55
F769.35000000000002
sg56
F3.5699999999999998
sg57
F120.78
sg58
F0.0
sba(i__main__
Pocket
p855
(dp856
g3
F0.51000000000000001
sg4
F0.70999999999999996
sg5
F0.59999999999999998
sg6
F0.0
sg7
F0.66000000000000003
sg8
F45.0
sg9
F38.710000000000001
sg10
F0.0
sg11
F15.44
sg12
F0.0
sg13
F9.2200000000000006
sg14
F252.41
sg15
F0.0
sg16
S'PEP'
p857
sg18
F1.0
sg19
F0.0
sg20
F1.0
sg21
S'1ugm_unbound.pdb'
p858
sg23
F0.0
sg24
F1.0
sg25
F0.40000000000000002
sg26
F3.5800000000000001
sg27
F6.0
sg28
F3.8599999999999999
sg29
F1.0
sg30
F0.029999999999999999
sg31
F0.14000000000000001
sg32
F1.0
sg33
F0.0
sg34
F2.0
sg35
F0.0
sg36
F0.58999999999999997
sg37
F1.0
sg38
F9.5800000000000001
sg39
F-1.0
sg40
F1.0
sg41
F0.5
sg42
F117.14
sg43
F0.0
sg44
F0.0
sg45
F0.0
sg46
F0.40000000000000002
sg47
F1.0
sg48
F0.0
sg49
F574.10000000000002
sg50
F2.0
sg51
F13.67
sg52
F0.0
sg53
F0.0
sg54
F-1.25
sg55
F769.35000000000002
sg56
F4.29
sg57
F135.27000000000001
sg58
F0.0
sba(i__main__
Pocket
p859
(dp860
g3
F0.73999999999999999
sg4
F0.59999999999999998
sg5
F1.0
sg6
F0.0
sg7
F0.68000000000000005
sg8
F60.0
sg9
F38.240000000000002
sg10
F0.0
sg11
F22.420000000000002
sg12
F0.0
sg13
F17.329999999999998
sg14
F208.37
sg15
F0.0
sg16
S'PEP'
p861
sg18
F3.0
sg19
F0.0
sg20
F0.0
sg21
S'1ugm_unbound.pdb'
p862
sg23
F0.0
sg24
F1.0
sg25
F0.40000000000000002
sg26
F4.4199999999999999
sg27
F10.0
sg28
F3.8999999999999999
sg29
F0.0
sg30
F0.38
sg31
F0.29999999999999999
sg32
F0.0
sg33
F0.0
sg34
F0.0
sg35
F1.0
sg36
F0.79000000000000004
sg37
F2.0
sg38
F9.8699999999999992
sg39
F-3.0
sg40
F3.0
sg41
F0.53000000000000003
sg42
F106.27
sg43
F0.0
sg44
F0.0
sg45
F0.0
sg46
F0.40000000000000002
sg47
F0.0
sg48
F0.0
sg49
F563.48000000000002
sg50
F0.0
sg51
F28.5
sg52
F2.0
sg53
F0.0
sg54
F-1.25
sg55
F769.35000000000002
sg56
F3.6699999999999999
sg57
F102.09999999999999
sg58
F0.0
sba(i__main__
Pocket
p863
(dp864
g3
F1.0
sg4
F1.0
sg5
F0.40000000000000002
sg6
F0.0
sg7
F1.0
sg8
F76.0
sg9
F34.149999999999999
sg10
F2.0
sg11
F30.289999999999999
sg12
F1.0
sg13
F17.43
sg14
F397.49000000000001
sg15
F2.0
sg16
S'PEP'
p865
sg18
F1.0
sg19
F0.0
sg20
F0.0
sg21
S'1ugm_unbound.pdb'
p866
sg23
F0.0
sg24
F0.0
sg25
F0.55000000000000004
sg26
F4.21
sg27
F4.0
sg28
F3.8500000000000001
sg29
F0.0
sg30
F0.88
sg31
F0.56999999999999995
sg32
F2.0
sg33
F0.0
sg34
F1.0
sg35
F0.0
sg36
F1.0
sg37
F1.0
sg38
F14.960000000000001
sg39
F-1.0
sg40
F2.0
sg41
F0.46000000000000002
sg42
F230.66
sg43
F0.0
sg44
F0.0
sg45
F0.0
sg46
F0.55000000000000004
sg47
F0.0
sg48
F1.0
sg49
F655.02999999999997
sg50
F0.0
sg51
F58.57
sg52
F1.0
sg53
F0.0
sg54
F-1.25
sg55
F769.35000000000002
sg56
F5.9500000000000002
sg57
F166.83000000000001
sg58
F0.0
sba(i__main__
Pocket
p867
(dp868
g3
F0.41999999999999998
sg4
F0.58999999999999997
sg5
F0.20000000000000001
sg6
F0.0
sg7
F0.58999999999999997
sg8
F36.0
sg9
F47.619999999999997
sg10
F1.0
sg11
F12.859999999999999
sg12
F1.0
sg13
F21.609999999999999
sg14
F239.69
sg15
F0.0
sg16
S'PEP'
p869
sg18
F1.0
sg19
F1.0
sg20
F0.0
sg21
S'1ugm_unbound.pdb'
p870
sg23
F0.0
sg24
F0.0
sg25
F0.39000000000000001
sg26
F4.71
sg27
F2.0
sg28
F4.4000000000000004
sg29
F0.0
sg30
F0.17000000000000001
sg31
F0.78000000000000003
sg32
F0.0
sg33
F0.0
sg34
F0.0
sg35
F0.0
sg36
F0.46999999999999997
sg37
F0.0
sg38
F8.3599999999999994
sg39
F1.0
sg40
F0.0
sg41
F0.56000000000000005
sg42
F106.27
sg43
F0.0
sg44
F0.0
sg45
F0.0
sg46
F0.39000000000000001
sg47
F0.0
sg48
F3.0
sg49
F630.75
sg50
F0.0
sg51
F58.859999999999999
sg52
F0.0
sg53
F0.0
sg54
F-1.25
sg55
F769.35000000000002
sg56
F3.6099999999999999
sg57
F133.41
sg58
F0.0
sba(i__main__
Pocket
p871
(dp872
g3
F1.0
sg4
F0.45000000000000001
sg5
F0.5
sg6
F1.0
sg7
F0.45000000000000001
sg8
F77.0
sg9
F41.460000000000001
sg10
F2.0
sg11
F36.100000000000001
sg12
F0.0
sg13
F2.3300000000000001
sg14
F318.42000000000002
sg15
F1.0
sg16
S'PEP'
p873
sg18
F1.0
sg19
F0.0
sg20
F3.0
sg21
S'3d1g_unbound.pdb'
p874
sg23
F41.57
sg24
F1.0
sg25
F0.53000000000000003
sg26
F4.25
sg27
F7.0
sg28
F3.79
sg29
F1.0
sg30
F0.52000000000000002
sg31
F0.059999999999999998
sg32
F1.0
sg33
F1.0
sg34
F0.0
sg35
F1.0
sg36
F0.33000000000000002
sg37
F0.0
sg38
F12.27
sg39
F-1.0
sg40
F2.0
sg41
F0.5
sg42
F185.97
sg43
F0.79000000000000004
sg44
F0.88
sg45
F1.0
sg46
F0.53000000000000003
sg47
F0.0
sg48
F0.0
sg49
F674.76999999999998
sg50
F1.0
sg51
F30.559999999999999
sg52
F1.0
sg53
F0.0
sg54
F1.49
sg55
F529.26999999999998
sg56
F4.8200000000000003
sg57
F132.44
sg58
F0.0
sba(i__main__
Pocket
p875
(dp876
g3
F0.11
sg4
F0.28999999999999998
sg5
F0.42999999999999999
sg6
F0.0
sg7
F0.26000000000000001
sg8
F40.0
sg9
F60.0
sg10
F1.0
sg11
F4.0
sg12
F0.0
sg13
F7.46
sg14
F251.53
sg15
F0.0
sg16
S'PEP'
p877
sg18
F2.0
sg19
F0.0
sg20
F1.0
sg21
S'3d1g_unbound.pdb'
p878
sg23
F4.4900000000000002
sg24
F0.0
sg25
F0.12
sg26
F4.4400000000000004
sg27
F6.0
sg28
F4.6900000000000004
sg29
F0.0
sg30
F0.040000000000000001
sg31
F0.17999999999999999
sg32
F0.0
sg33
F0.0
sg34
F0.0
sg35
F1.0
sg36
F0.17000000000000001
sg37
F0.0
sg38
F6.5199999999999996
sg39
F1.0
sg40
F2.0
sg41
F0.53000000000000003
sg42
F71.25
sg43
F0.0
sg44
F0.0
sg45
F0.0
sg46
F0.12
sg47
F1.0
sg48
F0.0
sg49
F617.17999999999995
sg50
F1.0
sg51
F36.890000000000001
sg52
F0.0
sg53
F0.0
sg54
F-1.25
sg55
F529.26999999999998
sg56
F3.1099999999999999
sg57
F180.28
sg58
F0.0
sba(i__main__
Pocket
p879
(dp880
g3
F0.64000000000000001
sg4
F0.40000000000000002
sg5
F0.42999999999999999
sg6
F2.0
sg7
F0.41999999999999998
sg8
F60.0
sg9
F48.479999999999997
sg10
F1.0
sg11
F23.0
sg12
F1.0
sg13
F9.8000000000000007
sg14
F238.90000000000001
sg15
F1.0
sg16
S'PEP'
p881
sg18
F0.0
sg19
F1.0
sg20
F2.0
sg21
S'3d1g_unbound.pdb'
p882
sg23
F6.7400000000000002
sg24
F0.0
sg25
F0.40000000000000002
sg26
F4.0800000000000001
sg27
F6.0
sg28
F3.6800000000000002
sg29
F0.0
sg30
F0.040000000000000001
sg31
F0.33000000000000002
sg32
F0.0
sg33
F0.0
sg34
F0.0
sg35
F1.0
sg36
F0.26000000000000001
sg37
F1.0
sg38
F11.48
sg39
F0.0
sg40
F1.0
sg41
F0.51000000000000001
sg42
F130.5
sg43
F0.0
sg44
F0.0
sg45
F0.0
sg46
F0.40000000000000002
sg47
F0.0
sg48
F0.0
sg49
F329.37
sg50
F0.0
sg51
F17.170000000000002
sg52
F1.0
sg53
F0.0
sg54
F-1.25
sg55
F529.26999999999998
sg56
F4.25
sg57
F108.39
sg58
F0.0
sba(i__main__
Pocket
p883
(dp884
g3
F0.11
sg4
F0.35999999999999999
sg5
F0.28999999999999998
sg6
F0.0
sg7
F0.33000000000000002
sg8
F37.0
sg9
F52.0
sg10
F0.0
sg11
F4.0
sg12
F1.0
sg13
F9.8200000000000003
sg14
F249.78999999999999
sg15
F1.0
sg16
S'PEP'
p885
sg18
F0.0
sg19
F0.0
sg20
F1.0
sg21
S'3d1g_unbound.pdb'
p886
sg23
F3.3700000000000001
sg24
F2.0
sg25
F0.14000000000000001
sg26
F3.7000000000000002
sg27
F4.0
sg28
F4.04
sg29
F2.0
sg30
F0.01
sg31
F0.23999999999999999
sg32
F1.0
sg33
F0.0
sg34
F0.0
sg35
F0.0
sg36
F0.16
sg37
F0.0
sg38
F8.6400000000000006
sg39
F-2.0
sg40
F0.0
sg41
F0.60999999999999999
sg42
F94.189999999999998
sg43
F0.0
sg44
F0.0
sg45
F0.0
sg46
F0.14000000000000001
sg47
F0.0
sg48
F1.0
sg49
F507.11000000000001
sg50
F0.0
sg51
F19.899999999999999
sg52
F1.0
sg53
F0.0
sg54
F-1.25
sg55
F529.26999999999998
sg56
F3.8700000000000001
sg57
F155.59999999999999
sg58
F0.0
sba(i__main__
Pocket
p887
(dp888
g3
F0.29999999999999999
sg4
F0.39000000000000001
sg5
F0.28999999999999998
sg6
F0.0
sg7
F0.33000000000000002
sg8
F36.0
sg9
F48.149999999999999
sg10
F0.0
sg11
F10.67
sg12
F1.0
sg13
F17.629999999999999
sg14
F273.74000000000001
sg15
F0.0
sg16
S'PEP'
p889
sg18
F1.0
sg19
F0.0
sg20
F3.0
sg21
S'3d1g_unbound.pdb'
p890
sg23
F0.0
sg24
F0.0
sg25
F0.33000000000000002
sg26
F2.6699999999999999
sg27
F4.0
sg28
F4.2000000000000002
sg29
F1.0
sg30
F0.01
sg31
F0.25
sg32
F0.0
sg33
F0.0
sg34
F1.0
sg35
F0.0
sg36
F0.14999999999999999
sg37
F1.0
sg38
F8.7699999999999996
sg39
F0.0
sg40
F0.0
sg41
F0.56999999999999995
sg42
F140.08000000000001
sg43
F0.0
sg44
F0.0
sg45
F0.0
sg46
F0.33000000000000002
sg47
F1.0
sg48
F0.0
sg49
F680.46000000000004
sg50
F0.0
sg51
F-19.670000000000002
sg52
F0.0
sg53
F0.0
sg54
F-1.25
sg55
F529.26999999999998
sg56
F4.21
sg57
F133.66
sg58
F0.0
sba(i__main__
Pocket
p891
(dp892
g3
F0.87
sg4
F0.42999999999999999
sg5
F0.35999999999999999
sg6
F1.0
sg7
F0.38
sg8
F43.0
sg9
F9.6799999999999997
sg10
F3.0
sg11
F31.530000000000001
sg12
F1.0
sg13
F19.719999999999999
sg14
F66.950000000000003
sg15
F2.0
sg16
S'PEP'
p893
sg18
F0.0
sg19
F0.0
sg20
F1.0
sg21
S'3d1g_unbound.pdb'
p894
sg23
F0.0
sg24
F0.0
sg25
F1.0
sg26
F4.0599999999999996
sg27
F5.0
sg28
F3.1800000000000002
sg29
F0.0
sg30
F0.59999999999999998
sg31
F0.080000000000000002
sg32
F0.0
sg33
F0.0
sg34
F3.0
sg35
F1.0
sg36
F0.19
sg37
F0.0
sg38
F10.23
sg39
F0.0
sg40
F3.0
sg41
F0.33000000000000002
sg42
F61.590000000000003
sg43
F0.0
sg44
F0.0
sg45
F0.0
sg46
F1.0
sg47
F0.0
sg48
F0.0
sg49
F216.75999999999999
sg50
F0.0
sg51
F48.810000000000002
sg52
F1.0
sg53
F0.0
sg54
F-1.25
sg55
F529.26999999999998
sg56
F4.5899999999999999
sg57
F5.3600000000000003
sg58
F0.0
sba(i__main__
Pocket
p895
(dp896
g3
F0.44
sg4
F0.25
sg5
F0.28999999999999998
sg6
F0.0
sg7
F0.28000000000000003
sg8
F43.0
sg9
F57.140000000000001
sg10
F1.0
sg11
F16.0
sg12
F0.0
sg13
F23.719999999999999
sg14
F225.46000000000001
sg15
F1.0
sg16
S'PEP'
p897
sg18
F1.0
sg19
F0.0
sg20
F3.0
sg21
S'3d1g_unbound.pdb'
p898
sg23
F0.0
sg24
F0.0
sg25
F0.40000000000000002
sg26
F3.1099999999999999
sg27
F4.0
sg28
F4.2599999999999998
sg29
F0.0
sg30
F0.01
sg31
F0.31
sg32
F0.0
sg33
F0.0
sg34
F0.0
sg35
F0.0
sg36
F0.19
sg37
F3.0
sg38
F7.1100000000000003
sg39
F-3.0
sg40
F0.0
sg41
F0.62
sg42
F59.170000000000002
sg43
F0.0
sg44
F0.0
sg45
F0.0
sg46
F0.40000000000000002
sg47
F0.0
sg48
F0.0
sg49
F474.31
sg50
F0.0
sg51
F-17.780000000000001
sg52
F0.0
sg53
F0.0
sg54
F-1.25
sg55
F529.26999999999998
sg56
F2.6499999999999999
sg57
F166.28999999999999
sg58
F0.0
sba(i__main__
Pocket
p899
(dp900
g3
F0.93000000000000005
sg4
F0.44
sg5
F0.5
sg6
F3.0
sg7
F0.47999999999999998
sg8
F70.0
sg9
F44.439999999999998
sg10
F2.0
sg11
F33.670000000000002
sg12
F0.0
sg13
F29.789999999999999
sg14
F353.16000000000003
sg15
F0.0
sg16
S'PEP'
p901
sg18
F0.0
sg19
F0.0
sg20
F2.0
sg21
S'3d1g_unbound.pdb'
p902
sg23
F0.0
sg24
F0.0
sg25
F0.51000000000000001
sg26
F3.9199999999999999
sg27
F7.0
sg28
F4.0199999999999996
sg29
F1.0
sg30
F0.23999999999999999
sg31
F0.63
sg32
F0.0
sg33
F0.0
sg34
F0.0
sg35
F1.0
sg36
F0.29999999999999999
sg37
F1.0
sg38
F13.17
sg39
F0.0
sg40
F0.0
sg41
F0.55000000000000004
sg42
F208.91999999999999
sg43
F0.0
sg44
F0.0
sg45
F0.0
sg46
F0.51000000000000001
sg47
F1.0
sg48
F0.0
sg49
F746.48000000000002
sg50
F2.0
sg51
F12.460000000000001
sg52
F0.0
sg53
F0.0
sg54
F-1.25
sg55
F529.26999999999998
sg56
F4.6900000000000004
sg57
F144.24000000000001
sg58
F0.0
sba(i__main__
Pocket
p903
(dp904
g3
F0.25
sg4
F0.40999999999999998
sg5
F0.56999999999999995
sg6
F0.0
sg7
F0.46000000000000002
sg8
F48.0
sg9
F45.710000000000001
sg10
F1.0
sg11
F9.0
sg12
F0.0
sg13
F30.57
sg14
F239.80000000000001
sg15
F0.0
sg16
S'PEP'
p905
sg18
F1.0
sg19
F0.0
sg20
F1.0
sg21
S'3d1g_unbound.pdb'
p906
sg23
F0.0
sg24
F1.0
sg25
F0.20999999999999999
sg26
F4.0
sg27
F8.0
sg28
F3.5800000000000001
sg29
F2.0
sg30
F0.01
sg31
F0.28999999999999998
sg32
F0.0
sg33
F0.0
sg34
F0.0
sg35
F1.0
sg36
F0.20999999999999999
sg37
F2.0
sg38
F12.58
sg39
F-3.0
sg40
F0.0
sg41
F0.54000000000000004
sg42
F50.719999999999999
sg43
F0.0
sg44
F0.0
sg45
F0.0
sg46
F0.20999999999999999
sg47
F0.0
sg48
F2.0
sg49
F527.59000000000003
sg50
F0.0
sg51
F10.58
sg52
F0.0
sg53
F0.0
sg54
F-1.25
sg55
F529.26999999999998
sg56
F4.4299999999999997
sg57
F189.08000000000001
sg58
F1.0
sba(i__main__
Pocket
p907
(dp908
g3
F0.33000000000000002
sg4
F0.63
sg5
F0.64000000000000001
sg6
F0.0
sg7
F0.54000000000000004
sg8
F89.0
sg9
F46.0
sg10
F3.0
sg11
F11.81
sg12
F1.0
sg13
F31.210000000000001
sg14
F453.92000000000002
sg15
F1.0
sg16
S'PEP'
p909
sg18
F0.0
sg19
F2.0
sg20
F0.0
sg21
S'3d1g_unbound.pdb'
p910
sg23
F0.0
sg24
F0.0
sg25
F0.23999999999999999
sg26
F4.4100000000000001
sg27
F9.0
sg28
F3.71
sg29
F1.0
sg30
F0.059999999999999998
sg31
F0.28999999999999998
sg32
F0.0
sg33
F0.0
sg34
F0.0
sg35
F2.0
sg36
F0.39000000000000001
sg37
F2.0
sg38
F14.970000000000001
sg39
F1.0
sg40
F1.0
sg41
F0.46000000000000002
sg42
F163.03
sg43
F0.0
sg44
F0.0
sg45
F0.0
sg46
F0.23999999999999999
sg47
F1.0
sg48
F1.0
sg49
F927.34000000000003
sg50
F1.0
sg51
F35.590000000000003
sg52
F1.0
sg53
F0.0
sg54
F-1.25
sg55
F529.26999999999998
sg56
F6.71
sg57
F290.88999999999999
sg58
F0.0
sba(i__main__
Pocket
p911
(dp912
g3
F0.66000000000000003
sg4
F0.28000000000000003
sg5
F0.070000000000000007
sg6
F0.0
sg7
F0.28000000000000003
sg8
F37.0
sg9
F33.329999999999998
sg10
F1.0
sg11
F23.920000000000002
sg12
F0.0
sg13
F38.909999999999997
sg14
F174.44
sg15
F1.0
sg16
S'PEP'
p913
sg18
F0.0
sg19
F0.0
sg20
F2.0
sg21
S'3d1g_unbound.pdb'
p914
sg23
F0.0
sg24
F0.0
sg25
F0.68000000000000005
sg26
F4.0
sg27
F1.0
sg28
F4.0700000000000003
sg29
F0.0
sg30
F0.050000000000000003
sg31
F0.35999999999999999
sg32
F0.0
sg33
F0.0
sg34
F0.0
sg35
F0.0
sg36
F0.16
sg37
F0.0
sg38
F7.21
sg39
F1.0
sg40
F0.0
sg41
F0.60999999999999999
sg42
F100.23
sg43
F0.0
sg44
F0.0
sg45
F0.0
sg46
F0.68000000000000005
sg47
F1.0
sg48
F1.0
sg49
F475.16000000000003
sg50
F0.0
sg51
F27.329999999999998
sg52
F0.0
sg53
F0.0
sg54
F-1.25
sg55
F529.26999999999998
sg56
F2.96
sg57
F74.209999999999994
sg58
F0.0
sba(i__main__
Pocket
p915
(dp916
g3
F0.11
sg4
F0.35999999999999999
sg5
F0.5
sg6
F1.0
sg7
F0.32000000000000001
sg8
F36.0
sg9
F52.170000000000002
sg10
F1.0
sg11
F4.0
sg12
F1.0
sg13
F39.740000000000002
sg14
F271.94999999999999
sg15
F0.0
sg16
S'PEP'
p917
sg18
F1.0
sg19
F1.0
sg20
F1.0
sg21
S'3d1g_unbound.pdb'
p918
sg23
F0.0
sg24
F0.0
sg25
F0.14000000000000001
sg26
F3.8500000000000001
sg27
F7.0
sg28
F4.6699999999999999
sg29
F0.0
sg30
F0.01
sg31
F0.20000000000000001
sg32
F0.0
sg33
F0.0
sg34
F0.0
sg35
F0.0
sg36
F0.14999999999999999
sg37
F3.0
sg38
F8.3499999999999996
sg39
F-1.0
sg40
F0.0
sg41
F0.56000000000000005
sg42
F156.99000000000001
sg43
F0.0
sg44
F0.0
sg45
F0.0
sg46
F0.14000000000000001
sg47
F1.0
sg48
F0.0
sg49
F621.00999999999999
sg50
F3.0
sg51
F9.3100000000000005
sg52
F0.0
sg53
F0.0
sg54
F-1.25
sg55
F529.26999999999998
sg56
F3.8399999999999999
sg57
F114.95999999999999
sg58
F0.0
sba(i__main__
Pocket
p919
(dp920
g3
F0.77000000000000002
sg4
F0.45000000000000001
sg5
F0.20999999999999999
sg6
F0.0
sg7
F0.33000000000000002
sg8
F43.0
sg9
F14.710000000000001
sg10
F6.0
sg11
F27.949999999999999
sg12
F1.0
sg13
F41.200000000000003
sg14
F7.25
sg15
F2.0
sg16
S'PEP'
p921
sg18
F0.0
sg19
F0.0
sg20
F0.0
sg21
S'3d1g_unbound.pdb'
p922
sg23
F0.0
sg24
F0.0
sg25
F0.94999999999999996
sg26
F4.8099999999999996
sg27
F3.0
sg28
F3.1299999999999999
sg29
F0.0
sg30
F0.81000000000000005
sg31
F0.12
sg32
F0.0
sg33
F0.0
sg34
F0.0
sg35
F1.0
sg36
F0.19
sg37
F0.0
sg38
F8.6099999999999994
sg39
F0.0
sg40
F2.0
sg41
F0.34000000000000002
sg42
F7.25
sg43
F0.0
sg44
F0.0
sg45
F0.0
sg46
F0.94999999999999996
sg47
F0.0
sg48
F0.0
sg49
F171.46000000000001
sg50
F2.0
sg51
F80.120000000000005
sg52
F2.0
sg53
F0.0
sg54
F-1.25
sg55
F529.26999999999998
sg56
F4.8499999999999996
sg57
F0.0
sg58
F0.0
sba(i__main__
Pocket
p923
(dp924
g3
F0.34999999999999998
sg4
F0.34999999999999998
sg5
F0.42999999999999999
sg6
F0.0
sg7
F0.40000000000000002
sg8
F47.0
sg9
F37.039999999999999
sg10
F0.0
sg11
F12.529999999999999
sg12
F1.0
sg13
F41.960000000000001
sg14
F305.25999999999999
sg15
F1.0
sg16
S'PEP'
p925
sg18
F0.0
sg19
F0.0
sg20
F1.0
sg21
S'3d1g_unbound.pdb'
p926
sg23
F0.0
sg24
F1.0
sg25
F0.32000000000000001
sg26
F4.2999999999999998
sg27
F6.0
sg28
F4.4000000000000004
sg29
F1.0
sg30
F0.02
sg31
F0.27000000000000002
sg32
F0.0
sg33
F0.0
sg34
F0.0
sg35
F0.0
sg36
F0.20000000000000001
sg37
F1.0
sg38
F10.640000000000001
sg39
F-1.0
sg40
F2.0
sg41
F0.56999999999999995
sg42
F161.81999999999999
sg43
F0.0
sg44
F0.0
sg45
F0.0
sg46
F0.32000000000000001
sg47
F1.0
sg48
F0.0
sg49
F567.91999999999996
sg50
F1.0
sg51
F20.600000000000001
sg52
F0.0
sg53
F0.0
sg54
F-1.25
sg55
F529.26999999999998
sg56
F3.71
sg57
F143.43000000000001
sg58
F0.0
sba(i__main__
Pocket
p927
(dp928
g3
F0.46000000000000002
sg4
F0.31
sg5
F0.42999999999999999
sg6
F0.0
sg7
F0.34999999999999998
sg8
F43.0
sg9
F32.0
sg10
F0.0
sg11
F16.670000000000002
sg12
F1.0
sg13
F42.380000000000003
sg14
F285.14999999999998
sg15
F1.0
sg16
S'PEP'
p929
sg18
F0.0
sg19
F0.0
sg20
F1.0
sg21
S'3d1g_unbound.pdb'
p930
sg23
F0.0
sg24
F1.0
sg25
F0.41999999999999998
sg26
F4.2999999999999998
sg27
F6.0
sg28
F4.6500000000000004
sg29
F1.0
sg30
F0.02
sg31
F0.28999999999999998
sg32
F0.0
sg33
F0.0
sg34
F0.0
sg35
F0.0
sg36
F0.19
sg37
F1.0
sg38
F9.2100000000000009
sg39
F-1.0
sg40
F2.0
sg41
F0.66000000000000003
sg42
F177.52000000000001
sg43
F0.0
sg44
F0.0
sg45
F0.0
sg46
F0.41999999999999998
sg47
F1.0
sg48
F0.0
sg49
F588.86000000000001
sg50
F1.0
sg51
F20.600000000000001
sg52
F0.0
sg53
F0.0
sg54
F-1.25
sg55
F529.26999999999998
sg56
F3.3300000000000001
sg57
F107.63
sg58
F0.0
sba(i__main__
Pocket
p931
(dp932
g3
F0.26000000000000001
sg4
F0.38
sg5
F0.14000000000000001
sg6
F1.0
sg7
F0.35999999999999999
sg8
F43.0
sg9
F42.859999999999999
sg10
F1.0
sg11
F9.4499999999999993
sg12
F2.0
sg13
F43.640000000000001
sg14
F281.80000000000001
sg15
F0.0
sg16
S'PEP'
p933
sg18
F0.0
sg19
F0.0
sg20
F3.0
sg21
S'3d1g_unbound.pdb'
p934
sg23
F0.0
sg24
F0.0
sg25
F0.26000000000000001
sg26
F3.2000000000000002
sg27
F2.0
sg28
F4.46
sg29
F1.0
sg30
F0.01
sg31
F0.089999999999999997
sg32
F0.0
sg33
F0.0
sg34
F1.0
sg35
F0.0
sg36
F0.19
sg37
F0.0
sg38
F9.6400000000000006
sg39
F0.0
sg40
F0.0
sg41
F0.68999999999999995
sg42
F129.22
sg43
F0.0
sg44
F0.0
sg45
F0.0
sg46
F0.26000000000000001
sg47
F0.0
sg48
F1.0
sg49
F791.13999999999999
sg50
F0.0
sg51
F10.5
sg52
F0.0
sg53
F0.0
sg54
F-1.25
sg55
F529.26999999999998
sg56
F4.1100000000000003
sg57
F152.58000000000001
sg58
F0.0
sba(i__main__
Pocket
p935
(dp936
g3
F0.19
sg4
F0.34000000000000002
sg5
F0.5
sg6
F0.0
sg7
F0.34999999999999998
sg8
F36.0
sg9
F54.549999999999997
sg10
F0.0
sg11
F7.0
sg12
F0.0
sg13
F45.200000000000003
sg14
F197.21000000000001
sg15
F0.0
sg16
S'PEP'
p937
sg18
F1.0
sg19
F2.0
sg20
F0.0
sg21
S'3d1g_unbound.pdb'
p938
sg23
F0.0
sg24
F0.0
sg25
F0.22
sg26
F3.7799999999999998
sg27
F7.0
sg28
F3.6800000000000002
sg29
F0.0
sg30
F0.01
sg31
F0.17999999999999999
sg32
F0.0
sg33
F0.0
sg34
F1.0
sg35
F0.0
sg36
F0.14999999999999999
sg37
F2.0
sg38
F9.3599999999999994
sg39
F2.0
sg40
F0.0
sg41
F0.48999999999999999
sg42
F94.189999999999998
sg43
F0.0
sg44
F0.0
sg45
F0.0
sg46
F0.22
sg47
F2.0
sg48
F0.0
sg49
F554.21000000000004
sg50
F1.0
sg51
F-7.8899999999999997
sg52
F0.0
sg53
F0.0
sg54
F-1.25
sg55
F529.26999999999998
sg56
F3.6400000000000001
sg57
F103.01000000000001
sg58
F0.0
sba(i__main__
Pocket
p939
(dp940
g3
F0.20000000000000001
sg4
F0.31
sg5
F0.42999999999999999
sg6
F0.0
sg7
F0.32000000000000001
sg8
F36.0
sg9
F44.0
sg10
F1.0
sg11
F7.1100000000000003
sg12
F1.0
sg13
F49.82
sg14
F88.980000000000004
sg15
F1.0
sg16
S'PEP'
p941
sg18
F0.0
sg19
F0.0
sg20
F0.0
sg21
S'3d1g_unbound.pdb'
p942
sg23
F0.0
sg24
F2.0
sg25
F0.25
sg26
F4.6399999999999997
sg27
F6.0
sg28
F3.29
sg29
F0.0
sg30
F0.050000000000000003
sg31
F0.28999999999999998
sg32
F0.0
sg33
F0.0
sg34
F0.0
sg35
F1.0
sg36
F0.14999999999999999
sg37
F1.0
sg38
F8.3499999999999996
sg39
F-3.0
sg40
F2.0
sg41
F0.42999999999999999
sg42
F54.340000000000003
sg43
F0.0
sg44
F0.0
sg45
F0.0
sg46
F0.25
sg47
F0.0
sg48
F1.0
sg49
F137.78999999999999
sg50
F1.0
sg51
F41.18
sg52
F0.0
sg53
F0.0
sg54
F-1.25
sg55
F529.26999999999998
sg56
F3.3599999999999999
sg57
F34.640000000000001
sg58
F0.0
sba(i__main__
Pocket
p943
(dp944
g3
F0.35999999999999999
sg4
F0.58999999999999997
sg5
F0.5
sg6
F2.0
sg7
F0.53000000000000003
sg8
F74.0
sg9
F60.0
sg10
F3.0
sg11
F13.0
sg12
F0.0
sg13
F52.759999999999998
sg14
F388.73000000000002
sg15
F0.0
sg16
S'PEP'
p945
sg18
F2.0
sg19
F0.0
sg20
F4.0
sg21
S'3d1g_unbound.pdb'
p946
sg23
F0.0
sg24
F0.0
sg25
F0.19
sg26
F3.5299999999999998
sg27
F7.0
sg28
F3.9500000000000002
sg29
F1.0
sg30
F0.01
sg31
F0.14999999999999999
sg32
F0.0
sg33
F0.0
sg34
F1.0
sg35
F0.0
sg36
F0.32000000000000001
sg37
F2.0
sg38
F14.68
sg39
F-2.0
sg40
F0.0
sg41
F0.47999999999999998
sg42
F161.81999999999999
sg43
F0.0
sg44
F0.0
sg45
F0.0
sg46
F0.19
sg47
F0.0
sg48
F1.0
sg49
F861.47000000000003
sg50
F1.0
sg51
F7.0
sg52
F0.0
sg53
F0.0
sg54
F-1.25
sg55
F529.26999999999998
sg56
F6.2800000000000002
sg57
F226.91
sg58
F0.0
sba(i__main__
Pocket
p947
(dp948
g3
F0.46000000000000002
sg4
F1.0
sg5
F1.0
sg6
F2.0
sg7
F1.0
sg8
F228.0
sg9
F48.780000000000001
sg10
F3.0
sg11
F16.629999999999999
sg12
F2.0
sg13
F60.340000000000003
sg14
F921.42999999999995
sg15
F3.0
sg16
S'PEP'
p949
sg18
F2.0
sg19
F2.0
sg20
F3.0
sg21
S'3d1g_unbound.pdb'
p950
sg23
F28.09
sg24
F0.0
sg25
F0.28000000000000003
sg26
F4.0
sg27
F14.0
sg28
F3.7799999999999998
sg29
F0.0
sg30
F0.10000000000000001
sg31
F0.22
sg32
F1.0
sg33
F0.0
sg34
F1.0
sg35
F1.0
sg36
F1.0
sg37
F4.0
sg38
F28.449999999999999
sg39
F-2.0
sg40
F3.0
sg41
F0.5
sg42
F396.57999999999998
sg43
F0.0
sg44
F0.0
sg45
F0.0
sg46
F0.28000000000000003
sg47
F0.0
sg48
F0.0
sg49
F1753.02
sg50
F1.0
sg51
F24.670000000000002
sg52
F2.0
sg53
F0.0
sg54
F-1.25
sg55
F529.26999999999998
sg56
F10.66
sg57
F524.85000000000002
sg58
F0.0
sba.